
adsp_elf.bin:     file format elf32-xtensa-le


Disassembly of section .ResetVector.text:

00e80000 <_ResetVector>:
  e80000:	001406                                    	j	e80054 <_ResetHandler>

00e80003 <_ResetVector+0x3>:
	...

00e80004 <_ResetVector+0x4>:
  e80004:	ffffff08 16f00000 00001044 00e80160     ........D...`...
  e80014:	00e80180 44444441 00e80040 20000000     ....ADDD@...... 
  e80024:	00000001 00000000 00000000 16f340f0     .............@..
  e80034:	16f341ac 16f36518 16f20f20              .A...e.. ...

00e80040 <_xtos_mpu_attribs>:
  e80040:	00006018 000f7718 000d5718 000c4718     .`...w...W...G..
  e80050:	00006718                                .g..

00e80054 <_ResetHandler>:
  e80054:	ffec01                                    	l32r	a0, e80004 (ffffff08 <__memctl_default>)
  e80057:	136100                                    	wsr.memctl	a0
  e8005a:	000c                                    	movi.n	a0, 0
  e8005c:	13e400                                    	wsr.intenable	a0
  e8005f:	ffea21                                    	l32r	a2, e80008 (16f00000 <_WindowVectors_text_start>)
  e80062:	13e720                                    	wsr.vecbase	a2
  e80065:	006120                                    	rsil	a2, 1
  e80068:	ffe921                                    	l32r	a2, e8000c (1044 <__prefctl_default>)
  e8006b:	132820                                    	wsr.prefctl	a2
  e8006e:	ffe821                                    	l32r	a2, e80010 (e80160 <_ResetHandler_text_start>)
  e80071:	ffe831                                    	l32r	a3, e80014 (e80180 <__xt_mpu_init_table_size>)
  e80074:	05b216                                    	beqz	a2, e800d3 <_ResetHandler+0x7f>
  e80077:	058316                                    	beqz	a3, e800d3 <_ResetHandler+0x7f>
  e8007a:	0338                                    	l32i.n	a3, a3, 0
  e8007c:	053316                                    	beqz	a3, e800d3 <_ResetHandler+0x7f>
  e8007f:	0c0c                                    	movi.n	a12, 0
  e80081:	1362c0                                    	wsr.cacheadrdis	a12
  e80084:	135ac0                                    	wsr.mpuenb	a12
  e80087:	0d0c                                    	movi.n	a13, 0
  e80089:	fe1c                                    	movi.n	a14, 31
  e8008b:	000046                                    	j	e80090 <_ResetHandler+0x3c>

00e8008e <_ResetHandler+0x3a>:
	...

00e80090 <_ResetHandler+0x3c>:
  e80090:	0020c0                                    	memw
  e80093:	50ecd0                                    	wptlb	a13, a12
  e80096:	dd1b                                    	addi.n	a13, a13, 1
  e80098:	f43de7                                    	bltu	a13, a14, e80090 <_ResetHandler+0x3c>
  e8009b:	13bc                                    	beqz.n	a3, e800d0 <_ResetHandler+0x7c>
  e8009d:	b02320                                    	addx8	a2, a3, a2
  e800a0:	000586                                    	j	e800ba <_ResetHandler+0x66>

00e800a3 <_ResetHandler+0x4f>:
	...

00e800b0 <_ResetHandler+0x5c>:
  e800b0:	0020c0                                    	memw
  e800b3:	50efd0                                    	wptlb	a13, a15
  e800b6:	ee0b                                    	addi.n	a14, a14, -1
  e800b8:	439c                                    	beqz.n	a3, e800d0 <_ResetHandler+0x7c>
  e800ba:	f8c222                                    	addi	a2, a2, -8
  e800bd:	12d8                                    	l32i.n	a13, a2, 4
  e800bf:	02f8                                    	l32i.n	a15, a2, 0
  e800c1:	330b                                    	addi.n	a3, a3, -1
  e800c3:	44c0d0                                    	extui	a12, a13, 0, 5
  e800c6:	30ddc0                                    	xor	a13, a13, a12
  e800c9:	20dde0                                    	or	a13, a13, a14
  e800cc:	fff806                                    	j	e800b0 <_ResetHandler+0x5c>

00e800cf <_ResetHandler+0x7b>:
	...

00e800d0 <_ResetHandler+0x7c>:
  e800d0:	000f46                                    	j	e80111 <_ResetHandler+0xbd>

00e800d3 <_ResetHandler+0x7f>:
  e800d3:	ffd121                                    	l32r	a2, e80018 (44444441 <_memmap_cacheattr_reset>)
  e800d6:	ffd131                                    	l32r	a3, e8001c (e80040 <_xtos_mpu_attribs>)
  e800d9:	ffd141                                    	l32r	a4, e80020 (20000000 <__stack+0x8900000>)
  e800dc:	860c                                    	movi.n	a6, 8
  e800de:	170c                                    	movi.n	a7, 1
  e800e0:	090c                                    	movi.n	a9, 0
  e800e2:	136290                                    	wsr.cacheadrdis	a9
  e800e5:	358c20                                    	extui	a8, a2, 28, 4
  e800e8:	145080                                    	extui	a5, a8, 0, 2
  e800eb:	1199f0                                    	slli	a9, a9, 1
  e800ee:	a91b                                    	addi.n	a10, a9, 1
  e800f0:	839a50                                    	moveqz	a9, a10, a5
  e800f3:	a05830                                    	addx4	a5, a8, a3
  e800f6:	fbc882                                    	addi	a8, a8, -5
  e800f9:	b35380                                    	movgez	a5, a3, a8
  e800fc:	0558                                    	l32i.n	a5, a5, 0
  e800fe:	1122c0                                    	slli	a2, a2, 4
  e80101:	c07740                                    	sub	a7, a7, a4
  e80104:	660b                                    	addi.n	a6, a6, -1
  e80106:	556a                                    	add.n	a5, a5, a6
  e80108:	50e750                                    	wptlb	a5, a7
  e8010b:	fd6656                                    	bnez	a6, e800e5 <_ResetHandler+0x91>
  e8010e:	136290                                    	wsr.cacheadrdis	a9
  e80111:	036120                                    	rsr.memctl	a2
  e80114:	ffc431                                    	l32r	a3, e80024 (1 <_memmap_cacheattr_wb_base>)
  e80117:	202230                                    	or	a2, a2, a3
  e8011a:	136120                                    	wsr.memctl	a2
  e8011d:	ffc221                                    	l32r	a2, e80028 (0 <_Level2HandlerLabel>)
  e80120:	528c                                    	beqz.n	a2, e80129 <_ResetHandler+0xd5>
  e80122:	0002c0                                    	callx0	a2
  e80125:	000c                                    	movi.n	a0, 0
  e80127:	c2cc                                    	bnez.n	a2, e80137 <unpackdone>
  e80129:	ffc021                                    	l32r	a2, e8002c (0 <_Level2HandlerLabel>)
  e8012c:	03eb30                                    	rsr.prid	a3
  e8012f:	428c                                    	beqz.n	a2, e80137 <unpackdone>
  e80131:	343030                                    	extui	a3, a3, 0, 4
  e80134:	fff356                                    	bnez	a3, e80137 <unpackdone>

00e80137 <unpackdone>:
  e80137:	110c                                    	movi.n	a1, 1
  e80139:	134910                                    	wsr.windowstart	a1
  e8013c:	134800                                    	wsr.windowbase	a0
  e8013f:	002010                                    	rsync
  e80142:	000c                                    	movi.n	a0, 0
  e80144:	ffbb41                                    	l32r	a4, e80030 (16f340f0 <_Level2FromVector>)
  e80147:	13d240                                    	wsr.excsave2	a4
  e8014a:	ffba41                                    	l32r	a4, e80034 (16f341ac <_Level3FromVector>)
  e8014d:	13d340                                    	wsr.excsave3	a4
  e80150:	ffba51                                    	l32r	a5, e80038 (16f36518 <_Pri_3_HandlerAddress>)
  e80153:	0549                                    	s32i.n	a4, a5, 0
  e80155:	ffb901                                    	l32r	a0, e8003c (16f20f20 <_start>)
  e80158:	0000c0                                    	callx0	a0

00e8015b <unpackdone+0x24>:
	...

Disassembly of section .ResetHandler.text:

00e80160 <__xt_mpu_init_table>:
  e80160:	00000001 00018700 16f00001 000f7700     .............w..
  e80170:	17700001 00018700                       ..p.....

00e80178 <__xt_mpu_init_table+0x18>:
	...

00e80180 <__xt_mpu_init_table_size>:
  e80180:	00000003                                ....

Disassembly of section .WindowVectors.text:

16f00000 <_WindowOverflow4>:
16f00000:	49c500                                    	s32e	a0, a5, -16
16f00003:	49d510                                    	s32e	a1, a5, -12
16f00006:	49e520                                    	s32e	a2, a5, -8
16f00009:	49f530                                    	s32e	a3, a5, -4
16f0000c:	003400                                    	rfwo

16f0000f <_WindowOverflow4+0xf>:
	...

16f00010 <_xtos_alloca_handler>:
16f00010:	4128                                    	l32i.n	a2, a1, 16
16f00012:	5138                                    	l32i.n	a3, a1, 20
16f00014:	6148                                    	l32i.n	a4, a1, 24
16f00016:	60c112                                    	addi	a1, a1, 96
16f00019:	13d100                                    	wsr.excsave1	a0
16f0001c:	034800                                    	rsr.windowbase	a0
16f0001f:	4080f0                                    	rotw	-1
16f00022:	03e620                                    	rsr.ps	a2
16f00025:	343820                                    	extui	a3, a2, 8, 4
16f00028:	303340                                    	xor	a3, a3, a4
16f0002b:	000846                                    	j	16f00050 <_xtos_alloca_2>

16f0002e <_xtos_alloca_handler+0x1e>:
	...

16f00040 <_WindowUnderflow4>:
16f00040:	09c500                                    	l32e	a0, a5, -16
16f00043:	09d510                                    	l32e	a1, a5, -12
16f00046:	09e520                                    	l32e	a2, a5, -8
16f00049:	09f530                                    	l32e	a3, a5, -4
16f0004c:	003500                                    	rfwu

16f0004f <_WindowUnderflow4+0xf>:
	...

16f00050 <_xtos_alloca_2>:
16f00050:	03d140                                    	rsr.excsave1	a4
16f00053:	113380                                    	slli	a3, a3, 8
16f00056:	302230                                    	xor	a2, a2, a3
16f00059:	13e620                                    	wsr.ps	a2
16f0005c:	002010                                    	rsync
16f0005f:	dd74f7                                    	bbci	a4, 31, 16f00040 <_WindowUnderflow4>
16f00062:	4080f0                                    	rotw	-1
16f00065:	5778e7                                    	bbci	a8, 30, 16f000c0 <_WindowUnderflow8>
16f00068:	4080f0                                    	rotw	-1
16f0006b:	003446                                    	j	16f00140 <_WindowUnderflow12>

16f0006e <_xtos_alloca_2+0x1e>:
	...

16f00080 <_WindowOverflow8>:
16f00080:	49c900                                    	s32e	a0, a9, -16
16f00083:	09d100                                    	l32e	a0, a1, -12
16f00086:	49d910                                    	s32e	a1, a9, -12
16f00089:	49e920                                    	s32e	a2, a9, -8
16f0008c:	49f930                                    	s32e	a3, a9, -4
16f0008f:	498040                                    	s32e	a4, a0, -32
16f00092:	499050                                    	s32e	a5, a0, -28
16f00095:	49a060                                    	s32e	a6, a0, -24
16f00098:	49b070                                    	s32e	a7, a0, -20
16f0009b:	003400                                    	rfwo

16f0009e <_WindowOverflow8+0x1e>:
	...

16f000c0 <_WindowUnderflow8>:
16f000c0:	09c900                                    	l32e	a0, a9, -16
16f000c3:	09d910                                    	l32e	a1, a9, -12
16f000c6:	09e920                                    	l32e	a2, a9, -8
16f000c9:	09d170                                    	l32e	a7, a1, -12
16f000cc:	09f930                                    	l32e	a3, a9, -4
16f000cf:	098740                                    	l32e	a4, a7, -32
16f000d2:	099750                                    	l32e	a5, a7, -28
16f000d5:	09a760                                    	l32e	a6, a7, -24
16f000d8:	09b770                                    	l32e	a7, a7, -20
16f000db:	003500                                    	rfwu

16f000de <_WindowUnderflow8+0x1e>:
	...

16f00100 <_WindowOverflow12>:
16f00100:	49cd00                                    	s32e	a0, a13, -16
16f00103:	09d100                                    	l32e	a0, a1, -12
16f00106:	49dd10                                    	s32e	a1, a13, -12
16f00109:	49ed20                                    	s32e	a2, a13, -8
16f0010c:	49fd30                                    	s32e	a3, a13, -4
16f0010f:	494040                                    	s32e	a4, a0, -48
16f00112:	495050                                    	s32e	a5, a0, -44
16f00115:	496060                                    	s32e	a6, a0, -40
16f00118:	497070                                    	s32e	a7, a0, -36
16f0011b:	498080                                    	s32e	a8, a0, -32
16f0011e:	499090                                    	s32e	a9, a0, -28
16f00121:	49a0a0                                    	s32e	a10, a0, -24
16f00124:	49b0b0                                    	s32e	a11, a0, -20
16f00127:	003400                                    	rfwo

16f0012a <_WindowOverflow12+0x2a>:
	...

16f00140 <_WindowUnderflow12>:
16f00140:	09cd00                                    	l32e	a0, a13, -16
16f00143:	09dd10                                    	l32e	a1, a13, -12
16f00146:	09ed20                                    	l32e	a2, a13, -8
16f00149:	09d1b0                                    	l32e	a11, a1, -12
16f0014c:	09fd30                                    	l32e	a3, a13, -4
16f0014f:	094b40                                    	l32e	a4, a11, -48
16f00152:	095b50                                    	l32e	a5, a11, -44
16f00155:	096b60                                    	l32e	a6, a11, -40
16f00158:	097b70                                    	l32e	a7, a11, -36
16f0015b:	098b80                                    	l32e	a8, a11, -32
16f0015e:	099b90                                    	l32e	a9, a11, -28
16f00161:	09aba0                                    	l32e	a10, a11, -24
16f00164:	09bbb0                                    	l32e	a11, a11, -20
16f00167:	003500                                    	rfwu

16f0016a <_WindowUnderflow12+0x2a>:
	...

Disassembly of section .Level2InterruptVector.text:

16f0017c <_Level2Vector>:
16f0017c:	61d220                                    	xsr.excsave2	a2
16f0017f:	0002a0                                    	jx	a2

16f00182 <_Level2Vector+0x6>:
	...

Disassembly of section .Level3InterruptVector.text:

16f0019c <_Level3Vector>:
16f0019c:	61d320                                    	xsr.excsave3	a2
16f0019f:	0002a0                                    	jx	a2

16f001a2 <_Level3Vector+0x6>:
	...

Disassembly of section .DebugExceptionVector.text:

16f001bc <_DebugExceptionVector>:
16f001bc:	13d420                                    	wsr.excsave4	a2
16f001bf:	827c                                    	movi.n	a2, -8
16f001c1:	005100                                    	simcall	0

16f001c4 <_DebugExceptionVector+0x8>:
16f001c4:	ffff06                                    	j	16f001c4 <_DebugExceptionVector+0x8>

16f001c7 <_DebugExceptionVector+0xb>:
	...

Disassembly of section .NMIExceptionVector.text:

16f001dc <_NMIExceptionVector>:
16f001dc:	003510                                    	rfi	5

16f001df <_NMIExceptionVector+0x3>:
	...

Disassembly of section .KernelExceptionVector.text:

16f001fc <_KernelExceptionVector>:
16f001fc:	004100                                    	break	1, 0
16f001ff:	fffe46                                    	j	16f001fc <_KernelExceptionVector>

16f00202 <_KernelExceptionVector+0x6>:
	...

Disassembly of section .UserExceptionVector.literal:

16f00204 <_memmap_seg_sram5_end-0x4>:
16f00204:	16f36478                                xd..

Disassembly of section .UserExceptionVector.text:

16f0021c <_UserExceptionVector>:
16f0021c:	a0c112                                    	addi	a1, a1, -96
16f0021f:	4129                                    	s32i.n	a2, a1, 16
16f00221:	5139                                    	s32i.n	a3, a1, 20
16f00223:	fff831                                    	l32r	a3, 16f00204 <_KernelExceptionVector_text_end>
16f00226:	03e820                                    	rsr.exccause	a2
16f00229:	a03230                                    	addx4	a3, a2, a3
16f0022c:	0338                                    	l32i.n	a3, a3, 0
16f0022e:	6149                                    	s32i.n	a4, a1, 24
16f00230:	0003a0                                    	jx	a3

16f00233 <_UserExceptionVector+0x17>:
	...

Disassembly of section .DoubleExceptionVector.text:

16f0023c <_DoubleExceptionVector>:
16f0023c:	004140                                    	break	1, 4
16f0023f:	fffe46                                    	j	16f0023c <_DoubleExceptionVector>

16f00242 <_DoubleExceptionVector+0x6>:
	...

Disassembly of section .text:

16f20b20 <_stext>:
16f20b20:	16f20ffc 16f35830 00000000 17700000     ....0X........p.
16f20b30:	00040020 00000000 16f20b18 16f20b20      ........... ...
16f20b40:	00000000 16f36520 16f36524 16f36528     .... e..$e..(e..
16f20b50:	16f20f00 16f36260 16f37440 16f36530     ....`b..@t..0e..
16f20b60:	00000000 16f20b04 00000000 16f37444     ............Dt..
16f20b70:	00e83000 16f21020 16f3745c 00362b2f     .0.. ...\t../+6.
16f20b80:	00e82000 16f20a5c 16f20a44 16f20a50     . ..\...D...P...
16f20b90:	00e00f00 00362b30 16f20a14 16f20a18     ....0+6.........
16f20ba0:	16f20a1c 16f20a20 16f20a24 16f20a28     .... ...$...(...
16f20bb0:	16f20a2c 16f20a30 16f20a34 16f20a38     ,...0...4...8...
16f20bc0:	16f20a3c 16f20a40 16f37460 16f36534     <...@...`t..4e..
16f20bd0:	16f20a8c 16f20a74 0002ee00 16f36540     ....t.......@e..
16f20be0:	16f36580 00007fff 16f37478 16f22290     .e......xt..."..
16f20bf0:	16f22274 16effff4 ffff0000 ffffb000     t"..............
16f20c00:	16f363cc 007fffff 16f363c4 7fffffff     .c.......c......
16f20c10:	80000000 00013c68 16f365c0 3c6ef35f     ....h<...e.._.n<
16f20c20:	16f374c8 16f00308 ffefffff 00100000     .t..............
16f20c30:	01ffffff 16f002f0 00ffffff 000fffff     ................
16f20c40:	0007ffff 3fffffff 16f00ff0 00000cbc     .......?........
16f20c50:	16f00330 16f01600 00000a08 16f37508     0............u..
16f20c60:	16f25e58 16f37548 00046500 0000bb80     X^..Hu...e......
16f20c70:	0003ffff 00000f9f 16f0201c 16f02024     ......... ..$ ..
16f20c80:	00006000 00001800 00007cff 00007d00     .`.......|...}..
16f20c90:	000176ff 00003e7f c003ffff fc00ffff     .v...>..........
16f20ca0:	03ff0000 001fffff 0001ffff 1fffffff     ................
16f20cb0:	16f02008 00007900 ffffc7ff ffff80ff     . ...y..........
16f20cc0:	00002800 16f37588 16f282fc 16f282d8     .(...u..........
16f20cd0:	16f28288 e9100000 00800001 16f375b8     .............u..
16f20ce0:	00e00000 00e00340 00e00640 00e00040     ....@...@...@...
16f20cf0:	0001e000 16f375d0 0000f000 16f02050     .....u......P ..
16f20d00:	16f375bc a5a5a5a5 ffff0fff 00000800     .u..............
16f20d10:	00004800 16f36750 16f36790 00003e80     .H..Pg...g...>..
16f20d20:	00002b10 00017700 0002edff 00005dbf     .+...w.......]..
16f20d30:	00005dc0 00001f40 00002b11 00002ee0     .]..@....+......
16f20d40:	0000bb7f 00015888 0000ac44 00005622     .....X..D..."V..
16f20d50:	0002b110 00004100 80000001 80000003     .....A..........
16f20d60:	80000002 80000005 80000008 80000006     ................
16f20d70:	00000fa0 00004000 16f36f80 00870000     .....@...o......
16f20d80:	16f375e8 16f36b54 16f205a0 16f36fa0     .u..Tk.......o..
16f20d90:	16f36f90 16f375f0 fffff000 80808080     .o...u..........
16f20da0:	fefefeff 16f205b0 16f205c0 16f205e0     ................
16f20db0:	16f20ab4 16f20ad0 16f20ae4 16f20ac8     ................
16f20dc0:	16f20aac 16f20ab0 16f20aa4 16f20aa8     ................
16f20dd0:	16f2c570 7ff00000 0000270f 16f20af4     p........'......
16f20de0:	16f20ae4 3ff00000 3fd34413 509f79fb     .......?.D.?.y.P
16f20df0:	bff80000 3fd287a7 636f4361 3fc68a28     .......?aCoc(..?
16f20e00:	8b60c8b3 16f20750 16f20ae8 40240000     ..`.P.........$@
16f20e10:	16f20850 c0140000 401c0000 fcc00000     P..........@....
16f20e20:	16f20550 3fe00000 40000000 fe100000     P......?...@....
16f20e30:	40140000 16f36f94 00000fff 00001000     ...@.o..........
16f20e40:	16f375f4 16f20af8 16f20aa0 16f20a58     .u..........X...
16f20e50:	16f373f0 16f373b0 16f37410 16f37624     .s...s...t..$v..
16f20e60:	16f373b4 16f20680 03400000 00080000     .s........@.....
16f20e70:	fff00000 7fdfffff 800fffff 000000ff     ................
16f20e80:	0000ff00 00ff0000 ff000000 40404040     ............@@@@
16f20e90:	0000fb7f 16f20890 16f208b0 16f20ab4     ................
16f20ea0:	16f20ad0 16f20ac8 16f37634 16f3651c     ........4v...e..
16f20eb0:	16f37b90 16f37430 16f36270 16f36274     .{..0t..pb..tb..
16f20ec0:	16f00250 16f36278 16f36134 00050022     P...xb..4a.."...
16f20ed0:	c0000000 16f3614c 00001c00 16f341a0     ....La.......A..
16f20ee0:	16f37a40 16f36518 00050023 00002000     @z...e..#.... ..
16f20ef0:	80000007 16f2090c 16f20b08 16f20fc0     ................

16f20f00 <_init>:
16f20f00:	008136                                    	entry	a1, 64
16f20f03:	ff0781                                    	l32r	a8, 16f20b20 (16f20ffc <frame_dummy>)
16f20f06:	f03d                                    	nop.n
16f20f08:	0008e0                                    	callx8	a8
16f20f0b:	ff0681                                    	l32r	a8, 16f20b24 (16f35830 <__do_global_ctors_aux>)
16f20f0e:	f03d                                    	nop.n
16f20f10:	0008e0                                    	callx8	a8
16f20f13:	f01d                                    	retw.n

16f20f15 <_init+0x15>:
	...

16f20f20 <_start>:
16f20f20:	000c                                    	movi.n	a0, 0
16f20f22:	ff0121                                    	l32r	a2, 16f20b28 (0 <_Level2HandlerLabel>)
16f20f25:	ff0111                                    	l32r	a1, 16f20b2c (17700000 <__stack>)
16f20f28:	004216                                    	beqz	a2, 16f20f30 <_start+0x10>
16f20f2b:	0002c0                                    	callx0	a2
16f20f2e:	000c                                    	movi.n	a0, 0

16f20f30 <_start+0x10>:
16f20f30:	ff0031                                    	l32r	a3, 16f20b30 (40020 <xthals_release_major+0x3c970>)
16f20f33:	13e630                                    	wsr.ps	a3
16f20f36:	002010                                    	rsync
16f20f39:	fefe41                                    	l32r	a4, 16f20b34 (0 <_Level2HandlerLabel>)
16f20f3c:	004416                                    	beqz	a4, 16f20f44 <_start+0x24>
16f20f3f:	0004d0                                    	callx4	a4
16f20f42:	000c                                    	movi.n	a0, 0
16f20f44:	fefd61                                    	l32r	a6, 16f20b38 (16f20b18 <__XT_EXCEPTION_DESCS_END__>)
16f20f47:	fefd71                                    	l32r	a7, 16f20b3c (16f20b20 <_stext>)
16f20f4a:	42b677                                    	bgeu	a6, a7, 16f20f90 <_start+0x70>
16f20f4d:	fefc41                                    	l32r	a4, 16f20b40 (0 <_Level2HandlerLabel>)
16f20f50:	00d416                                    	beqz	a4, 16f20f61 <_start+0x41>
16f20f53:	fef961                                    	l32r	a6, 16f20b38 (16f20b18 <__XT_EXCEPTION_DESCS_END__>)
16f20f56:	fef971                                    	l32r	a7, 16f20b3c (16f20b20 <_stext>)
16f20f59:	0004d0                                    	callx4	a4
16f20f5c:	000c                                    	movi.n	a0, 0
16f20f5e:	000b86                                    	j	16f20f90 <_start+0x70>

16f20f61 <_start+0x41>:
16f20f61:	0688                                    	l32i.n	a8, a6, 0
16f20f63:	1698                                    	l32i.n	a9, a6, 4
16f20f65:	668b                                    	addi.n	a6, a6, 8
16f20f67:	c0a980                                    	sub	a10, a9, a8
16f20f6a:	036a27                                    	bbci	a10, 2, 16f20f71 <_start+0x51>
16f20f6d:	0809                                    	s32i.n	a0, a8, 0
16f20f6f:	884b                                    	addi.n	a8, a8, 4
16f20f71:	076a37                                    	bbci	a10, 3, 16f20f7c <_start+0x5c>
16f20f74:	0809                                    	s32i.n	a0, a8, 0
16f20f76:	016802                                    	s32i	a0, a8, 4
16f20f79:	08c882                                    	addi	a8, a8, 8
16f20f7c:	41a4a0                                    	srli	a10, a10, 4
16f20f7f:	0a9a76                                    	loopnez	a10, 16f20f8d <_start+0x6d>
16f20f82:	0809                                    	s32i.n	a0, a8, 0
16f20f84:	1809                                    	s32i.n	a0, a8, 4
16f20f86:	2809                                    	s32i.n	a0, a8, 8
16f20f88:	3809                                    	s32i.n	a0, a8, 12
16f20f8a:	10c882                                    	addi	a8, a8, 16

16f20f8d <_start+0x6d>:
16f20f8d:	d03677                                    	bltu	a6, a7, 16f20f61 <_start+0x41>

16f20f90 <_start+0x70>:
16f20f90:	1516d5                                    	call4	16f36100 <board_init>
16f20f93:	feec61                                    	l32r	a6, 16f20b44 (16f36520 <_clib_data_end>)
16f20f96:	feec71                                    	l32r	a7, 16f20b48 (16f36524 <_start_argv>)
16f20f99:	0668                                    	l32i.n	a6, a6, 0
16f20f9b:	feec81                                    	l32r	a8, 16f20b4c (16f36528 <_start_envp>)
16f20f9e:	feec91                                    	l32r	a9, 16f20b50 (16f20f00 <_init>)
16f20fa1:	feeca1                                    	l32r	a10, 16f20b54 (16f36260 <_fini>)
16f20fa4:	0b5495                                    	call4	16f2c4f0 <__clibrary_init>
16f20fa7:	fee761                                    	l32r	a6, 16f20b44 (16f36520 <_clib_data_end>)
16f20faa:	fee771                                    	l32r	a7, 16f20b48 (16f36524 <_start_argv>)
16f20fad:	f03d                                    	nop.n
16f20faf:	0668                                    	l32i.n	a6, a6, 0
16f20fb1:	fee681                                    	l32r	a8, 16f20b4c (16f36528 <_start_envp>)
16f20fb4:	002115                                    	call4	16f211c8 <main>
16f20fb7:	0b5695                                    	call4	16f2c520 <exit>

16f20fba <_start+0x9a>:
16f20fba:	00000000 41360000                                ......

16f20fc0 <__do_global_dtors_aux>:
16f20fc0:	004136                                    	entry	a1, 32
16f20fc3:	fee531                                    	l32r	a3, 16f20b58 (16f37440 <_bss_start>)
16f20fc6:	000382                                    	l8ui	a8, a3, 0
16f20fc9:	d8ec                                    	bnez.n	a8, 16f20ffa <__do_global_dtors_aux+0x3a>
16f20fcb:	fee421                                    	l32r	a2, 16f20b5c (16f36530 <p$7630_3_1>)
16f20fce:	02b8                                    	l32i.n	a11, a2, 0
16f20fd0:	0ba8                                    	l32i.n	a10, a11, 0
16f20fd2:	ca8c                                    	beqz.n	a10, 16f20fe2 <__do_global_dtors_aux+0x22>

16f20fd4 <__do_global_dtors_aux+0x14>:
16f20fd4:	9b4b                                    	addi.n	a9, a11, 4
16f20fd6:	0299                                    	s32i.n	a9, a2, 0
16f20fd8:	000ae0                                    	callx8	a10
16f20fdb:	02b8                                    	l32i.n	a11, a2, 0
16f20fdd:	0ba8                                    	l32i.n	a10, a11, 0
16f20fdf:	ff1a56                                    	bnez	a10, 16f20fd4 <__do_global_dtors_aux+0x14>
16f20fe2:	fedfa1                                    	l32r	a10, 16f20b60 (0 <_Level2HandlerLabel>)
16f20fe5:	0b0c                                    	movi.n	a11, 0
16f20fe7:	081ab7                                    	beq	a10, a11, 16f20ff3 <__do_global_dtors_aux+0x33>
16f20fea:	fedea1                                    	l32r	a10, 16f20b64 (16f20b04 <__XT_EXCEPTION_TABLE__>)
16f20fed:	fedc81                                    	l32r	a8, 16f20b60 (0 <_Level2HandlerLabel>)
16f20ff0:	0008e0                                    	callx8	a8
16f20ff3:	1c0c                                    	movi.n	a12, 1
16f20ff5:	0043c2                                    	s8i	a12, a3, 0
16f20ff8:	f01d                                    	retw.n

16f20ffa <__do_global_dtors_aux+0x3a>:
16f20ffa:	f01d                                    	retw.n

16f20ffc <frame_dummy>:
16f20ffc:	004136                                    	entry	a1, 32
16f20fff:	feda81                                    	l32r	a8, 16f20b68 (0 <_Level2HandlerLabel>)
16f21002:	090c                                    	movi.n	a9, 0
16f21004:	0b1897                                    	beq	a8, a9, 16f21013 <frame_dummy+0x17>
16f21007:	fed7a1                                    	l32r	a10, 16f20b64 (16f20b04 <__XT_EXCEPTION_TABLE__>)
16f2100a:	fed8b1                                    	l32r	a11, 16f20b6c (16f37444 <object$7649_5_1>)
16f2100d:	fed681                                    	l32r	a8, 16f20b68 (0 <_Level2HandlerLabel>)
16f21010:	0008e0                                    	callx8	a8

16f21013 <frame_dummy+0x17>:
16f21013:	f01d                                    	retw.n

16f21015 <frame_dummy+0x19>:
	...

16f21020 <swi_peri_interrupt_handler>:
16f21020:	004136                                    	entry	a1, 32
16f21023:	04a0a2                                    	movi	a10, 4
16f21026:	150ea5                                    	call8	16f36110 <xtos_interrupt_clear>
16f21029:	04a0a2                                    	movi	a10, 4
16f2102c:	12f125                                    	call8	16f33f40 <xtos_interrupt_disable>
16f2102f:	fed091                                    	l32r	a9, 16f20b70 (e83000 <_memmap_seg_srom0_end+0x2e78>)
16f21032:	0020c0                                    	memw
16f21035:	002982                                    	l32i	a8, a9, 0
16f21038:	3b046ec2107f328e                  	{ extui	a10, a8, 2, 4; movi	a11, -2 }
16f21040:	10aab0                                    	and	a10, a10, a11
16f21043:	2b024047009a63be                  	{ movi	a11, -61; extui	a10, a10, 0, 4 }
16f2104b:	2f06aa4600a648be                  	{ and	a8, a8, a11; slli	a10, a10, 2 }
16f21053:	2088a0                                    	or	a8, a8, a10
16f21056:	0020c0                                    	memw
16f21059:	0989                                    	s32i.n	a8, a9, 0
16f2105b:	f01d                                    	retw.n

16f2105d <swi_peri_interrupt_handler+0x3d>:
16f2105d:	000000                                        ...

16f21060 <swi_peri_register_interrupt>:
16f21060:	006136                                    	entry	a1, 48
16f21063:	04a0a2                                    	movi	a10, 4
16f21066:	12eda5                                    	call8	16f33f40 <xtos_interrupt_disable>
16f21069:	0b0464430400e2be                  	{ l32r	a11, 16f20b74 (16f21020 <swi_peri_interrupt_handler>); movi	a10, 4 }
16f21071:	0c04204708e0e11e                  	{ or	a13, a1, a1; movi	a12, 0 }
16f21079:	12f165                                    	call8	16f33f90 <xtos_set_interrupt_handler>
16f2107c:	04a0a2                                    	movi	a10, 4
16f2107f:	150925                                    	call8	16f36110 <xtos_interrupt_clear>
16f21082:	04a0a2                                    	movi	a10, 4
16f21085:	12e7a5                                    	call8	16f33f00 <xtos_interrupt_enable>
16f21088:	f01d                                    	retw.n

16f2108a <swi_peri_register_interrupt+0x2a>:
	...

16f21093 <swi_peri_register_interrupt+0x33>:
	...

16f21094 <my_profiler_flush>:
16f21094:	004136                                    	entry	a1, 32
16f21097:	030460421c00f85e                  	{ l32r	a5, 16f20b78 (16f3745c <g_adsp_sys_reg>); movi	a3, 0 }
16f2109f:	0558                                    	l32i.n	a5, a5, 0
16f210a1:	0faf62                                    	movi	a6, -241
16f210a4:	0020c0                                    	memw
16f210a7:	0548                                    	l32i.n	a4, a5, 0
16f210a9:	104460                                    	and	a4, a4, a6
16f210ac:	0020c0                                    	memw
16f210af:	0549                                    	s32i.n	a4, a5, 0
16f210b1:	0239                                    	s32i.n	a3, a2, 0
16f210b3:	1239                                    	s32i.n	a3, a2, 4
16f210b5:	2239                                    	s32i.n	a3, a2, 8
16f210b7:	3239                                    	s32i.n	a3, a2, 12
16f210b9:	4239                                    	s32i.n	a3, a2, 16
16f210bb:	5239                                    	s32i.n	a3, a2, 20
16f210bd:	f01d                                    	retw.n

16f210bf <my_profiler_flush+0x2b>:
	...

16f210c0 <my_profiler_start>:
16f210c0:	004136                                    	entry	a1, 32
16f210c3:	330260421419fd6e                  	{ l32r	a6, 16f20b78 (16f3745c <g_adsp_sys_reg>); extui	a7, a3, 0, 4 }
16f210cb:	0668                                    	l32i.n	a6, a6, 0
16f210cd:	09042fc518bc07ce                  	{ slli	a7, a7, 4; movi	a8, -241 }
16f210d5:	0020c0                                    	memw
16f210d8:	0658                                    	l32i.n	a5, a6, 0
16f210da:	105580                                    	and	a5, a5, a8
16f210dd:	205570                                    	or	a5, a5, a7
16f210e0:	0020c0                                    	memw
16f210e3:	0659                                    	s32i.n	a5, a6, 0
16f210e5:	03ea40                                    	rsr.ccount	a4
16f210e8:	3249                                    	s32i.n	a4, a2, 12
16f210ea:	f01d                                    	retw.n

16f210ec <my_profiler_stop>:
16f210ec:	004136                                    	entry	a1, 32
16f210ef:	03eab0                                    	rsr.ccount	a11
16f210f2:	32a8                                    	l32i.n	a10, a2, 12
16f210f4:	42b9                                    	s32i.n	a11, a2, 16
16f210f6:	10bab7                                    	bgeu	a10, a11, 16f2110a <my_profiler_stop+0x1e>
16f210f9:	2b04084214ef5bae                  	{ sub	a10, a11, a10; movi	a11, 0x3e8 }
16f21101:	148be5                                    	call8	16f359c0 <__udivsi3>
16f21104:	102326                                    	beqi	a3, 2, 16f21118 <my_profiler_stop+0x2c>
16f21107:	054326                                    	beqi	a3, 4, 16f21110 <my_profiler_stop+0x24>
16f2110a:	f01d                                    	retw.n

16f2110c <my_profiler_stop+0x20>:
16f2110c:	000000                                        ...

16f2110f <my_profiler_stop+0x23>:
	...

16f21110 <my_profiler_stop+0x24>:
16f21110:	2288                                    	l32i.n	a8, a2, 8
16f21112:	88aa                                    	add.n	a8, a8, a10
16f21114:	2289                                    	s32i.n	a8, a2, 8
16f21116:	f01d                                    	retw.n

16f21118 <my_profiler_stop+0x2c>:
16f21118:	0298                                    	l32i.n	a9, a2, 0
16f2111a:	99aa                                    	add.n	a9, a9, a10
16f2111c:	0299                                    	s32i.n	a9, a2, 0
16f2111e:	f01d                                    	retw.n

16f21120 <my_profiler_show>:
16f21120:	004136                                    	entry	a1, 32
16f21123:	18038240048012ae                  	{ l32i	a10, a2, 0; l32i	a9, a2, 4 }
16f2112b:	022232                                    	l32i	a3, a2, 8
16f2112e:	1b06e9420c12e38e                  	{ l32r	a8, 16f20b7c (362b2f <xthals_release_major+0x35f47f>); add	a9, a9, a10 }
16f21136:	803390                                    	add	a3, a3, a9
16f21139:	056232                                    	s32i	a3, a2, 20
16f2113c:	0a0400050800c83e                  	{ bgeu.w15	a8, a3, 16f21159 <my_profiler_show+0x39>; movi	a10, 0 }
16f21144:	203aa0                                    	or	a3, a10, a10
16f21147:	006232                                    	s32i	a3, a2, 0
16f2114a:	016232                                    	s32i	a3, a2, 4
16f2114d:	026232                                    	s32i	a3, a2, 8
16f21150:	036232                                    	s32i	a3, a2, 12
16f21153:	046232                                    	s32i	a3, a2, 16
16f21156:	056232                                    	s32i	a3, a2, 20

16f21159 <my_profiler_show+0x39>:
16f21159:	069316                                    	beqz	a3, 16f211c6 <my_profiler_show+0xa6>
16f2115c:	0022b2                                    	l32i	a11, a2, 0
16f2115f:	90abb0                                    	addx2	a10, a11, a11
16f21162:	2b06ea42041ef54e                  	{ l32r	a4, 16f20b78 (16f3745c <g_adsp_sys_reg>); addx8	a10, a10, a11 }
16f2116a:	3306b34610aa1aee                  	{ slli	a10, a10, 2; or	a11, a3, a3 }
16f21172:	1484e5                                    	call8	16f359c0 <__udivsi3>
16f21175:	3a069a40048a04ce                  	{ l32i	a12, a4, 0; or	a11, a10, a10 }
16f2117d:	0020c0                                    	memw
16f21180:	0122d2                                    	l32i	a13, a2, 4
16f21183:	90add0                                    	addx2	a10, a13, a13
16f21186:	2c06aa41049e1cbe                  	{ s8i	a11, a12, 4; addx8	a10, a10, a13 }
16f2118e:	3306b34610aa1aee                  	{ slli	a10, a10, 2; or	a11, a3, a3 }
16f21196:	1482a5                                    	call8	16f359c0 <__udivsi3>
16f21199:	3a069a40048a04ce                  	{ l32i	a12, a4, 0; or	a11, a10, a10 }
16f211a1:	0020c0                                    	memw
16f211a4:	22d8                                    	l32i.n	a13, a2, 8
16f211a6:	90add0                                    	addx2	a10, a13, a13
16f211a9:	2c06aa410c9e1cbe                  	{ s8i	a11, a12, 5; addx8	a10, a10, a13 }
16f211b1:	3306b34610aa1aee                  	{ slli	a10, a10, 2; or	a11, a3, a3 }
16f211b9:	148065                                    	call8	16f359c0 <__udivsi3>
16f211bc:	04e8                                    	l32i.n	a14, a4, 0
16f211be:	0020c0                                    	memw
16f211c1:	064ea2                                    	s8i	a10, a14, 6
16f211c4:	f01d                                    	retw.n

16f211c6 <my_profiler_show+0xa6>:
16f211c6:	f01d                                    	retw.n

16f211c8 <main>:
16f211c8:	010136                                    	entry	a1, 128
16f211cb:	ffe965                                    	call8	16f21060 <swi_peri_register_interrupt>
16f211ce:	fe6c31                                    	l32r	a3, 16f20b80 (e82000 <_memmap_seg_srom0_end+0x1e78>)
16f211d1:	0504414718807e2e                  	{ movi	a2, -2; movi	a5, 1 }
16f211d9:	0020c0                                    	memw
16f211dc:	9d2382                                    	l32i	a8, a3, 0x274
16f211df:	108820                                    	and	a8, a8, a2
16f211e2:	208850                                    	or	a8, a8, a5
16f211e5:	0020c0                                    	memw
16f211e8:	fe67a1                                    	l32r	a10, 16f20b84 (16f20a5c <__switchjump_table_xp_temp_3_11_91+0x1ac>)
16f211eb:	fe67b1                                    	l32r	a11, 16f20b88 (16f20a44 <__switchjump_table_xp_temp_3_11_91+0x194>)
16f211ee:	fe67c1                                    	l32r	a12, 16f20b8c (16f20a50 <__switchjump_table_xp_temp_3_11_91+0x1a0>)
16f211f1:	9d6382                                    	s32i	a8, a3, 0x274
16f211f4:	0b10a5                                    	call8	16f2c300 <osal_print>
16f211f7:	007000                                    	waiti	0
16f211fa:	fe5f41                                    	l32r	a4, 16f20b78 (16f3745c <g_adsp_sys_reg>)
16f211fd:	fe65b1                                    	l32r	a11, 16f20b94 (362b30 <xthals_release_major+0x35f480>)
16f21200:	fe6491                                    	l32r	a9, 16f20b90 (e00f00 <xthals_release_major+0xdfd850>)
16f21203:	0b0421400080049e                  	{ s32i	a9, a4, 0; movi	a10, 1 }
16f2120b:	010f25                                    	call8	16f222fc <timer_init>
16f2120e:	01a0a2                                    	movi	a10, 1
16f21211:	010d25                                    	call8	16f222e4 <timer_set_enable>
16f21214:	fe62f1                                    	l32r	a15, 16f20b9c (16f20a18 <__switchjump_table_xp_temp_3_11_91+0x168>)
16f21217:	016152                                    	s32i	a5, a1, 4
16f2121a:	fe5f21                                    	l32r	a2, 16f20b98 (16f20a14 <__switchjump_table_xp_temp_3_11_91+0x164>)
16f2121d:	fe6291                                    	l32r	a9, 16f20ba8 (16f20a24 <__switchjump_table_xp_temp_3_11_91+0x174>)
16f21220:	fe61b1                                    	l32r	a11, 16f20ba4 (16f20a20 <__switchjump_table_xp_temp_3_11_91+0x170>)
16f21223:	0f0462410c00efde                  	{ l32r	a13, 16f20ba0 (16f20a1c <__switchjump_table_xp_temp_3_11_91+0x16c>); movi	a14, 2 }
16f2122b:	0361e2                                    	s32i	a14, a1, 12
16f2122e:	0461d2                                    	s32i	a13, a1, 16
16f21231:	0661b2                                    	s32i	a11, a1, 24
16f21234:	086192                                    	s32i	a9, a1, 32
16f21237:	030426400080112e                  	{ s32i	a2, a1, 0; movi	a3, 6 }
16f2123f:	0b6132                                    	s32i	a3, a1, 44
16f21242:	090465410c00ea5e                  	{ l32r	a5, 16f20bac (16f20a28 <__switchjump_table_xp_temp_3_11_91+0x178>); movi	a8, 5 }
16f2124a:	0b0424420880018e                  	{ s32i	a8, a1, 36; movi	a10, 4 }
16f21252:	0761a2                                    	s32i	a10, a1, 28
16f21255:	0d042340108001fe                  	{ s32i	a15, a1, 8; movi	a12, 3 }
16f2125d:	0f042741088011ce                  	{ s32i	a12, a1, 20; movi	a15, 7 }
16f21265:	0d042943088001fe                  	{ s32i	a15, a1, 52; movi	a12, 9 }
16f2126d:	1b042044088001ce                  	{ s32i	a12, a1, 68; movi	a10, 16 }
16f21275:	19042144188001ae                  	{ s32i	a10, a1, 76; movi	a8, 17 }
16f2127d:	156182                                    	s32i	a8, a1, 84
16f21280:	0a6152                                    	s32i	a5, a1, 40
16f21283:	130462410400fb2e                  	{ l32r	a2, 16f20bb0 (16f20a2c <__switchjump_table_xp_temp_3_11_91+0x17c>); movi	a3, 18 }
16f2128b:	176132                                    	s32i	a3, a1, 92
16f2128e:	fe4c91                                    	l32r	a9, 16f20bc0 (16f20a3c <__switchjump_table_xp_temp_3_11_91+0x18c>)
16f21291:	fe4ab1                                    	l32r	a11, 16f20bbc (16f20a38 <__switchjump_table_xp_temp_3_11_91+0x188>)
16f21294:	fe49d1                                    	l32r	a13, 16f20bb8 (16f20a34 <__switchjump_table_xp_temp_3_11_91+0x184>)
16f21297:	fe47e1                                    	l32r	a14, 16f20bb4 (16f20a30 <__switchjump_table_xp_temp_3_11_91+0x180>)
16f2129a:	e1e9                                    	s32i.n	a14, a1, 56
16f2129c:	1061d2                                    	s32i	a13, a1, 64
16f2129f:	1261b2                                    	s32i	a11, a1, 72
16f212a2:	146192                                    	s32i	a9, a1, 80
16f212a5:	0302a1430098112e                  	{ s32i	a2, a1, 48; addi	a3, a1, 96 }
16f212ad:	030468410400e55e                  	{ l32r	a5, 16f20bc4 (16f20a40 <__switchjump_table_xp_temp_3_11_91+0x190>); movi	a2, 8 }
16f212b5:	050420451080115e                  	{ s32i	a5, a1, 88; movi	a5, 0 }
16f212bd:	2106b1431888112e                  	{ s32i	a2, a1, 60; or	a2, a1, a1 }

16f212c5 <main+0xfd>:
16f212c5:	fe30a1                                    	l32r	a10, 16f20b88 (16f20a44 <__switchjump_table_xp_temp_3_11_91+0x194>)
16f212c8:	0a03c240008013ce                  	{ movi	a12, 3; l32i	a11, a2, 0 }
16f212d0:	0020f0                                    	nop
16f212d3:	0b8ce5                                    	call8	16f2cba0 <strncmp>
16f212d6:	166a16                                    	beqz	a10, 16f21440 <main+0x278>
16f212d9:	228b                                    	addi.n	a2, a2, 8
16f212db:	e69237                                    	bne	a2, a3, 16f212c5 <main+0xfd>
16f212de:	04a8                                    	l32i.n	a10, a4, 0
16f212e0:	190469401c00fa2e                  	{ l32r	a2, 16f20bc8 (16f37460 <g_profiler_154>); movi	a9, 25 }
16f212e8:	0020c0                                    	memw
16f212eb:	164a92                                    	s8i	a9, a10, 22
16f212ee:	0488                                    	l32i.n	a8, a4, 0
16f212f0:	0020c0                                    	memw
16f212f3:	154852                                    	s8i	a5, a8, 21
16f212f6:	04f8                                    	l32i.n	a15, a4, 0
16f212f8:	5e1c                                    	movi.n	a14, 21
16f212fa:	0020c0                                    	memw
16f212fd:	144fe2                                    	s8i	a14, a15, 20
16f21300:	04d8                                    	l32i.n	a13, a4, 0
16f21302:	6c1c                                    	movi.n	a12, 22
16f21304:	0020c0                                    	memw
16f21307:	1a4dc2                                    	s8i	a12, a13, 26
16f2130a:	04b8                                    	l32i.n	a11, a4, 0
16f2130c:	7a2c                                    	movi.n	a10, 39
16f2130e:	0020c0                                    	memw
16f21311:	194ba2                                    	s8i	a10, a11, 25
16f21314:	0498                                    	l32i.n	a9, a4, 0
16f21316:	781c                                    	movi.n	a8, 23
16f21318:	0020c0                                    	memw
16f2131b:	2206b246048a098e                  	{ s8i	a8, a9, 24; or	a10, a2, a2 }
16f21323:	ffd725                                    	call8	16f21094 <my_profiler_flush>
16f21326:	070460401400e93e                  	{ l32r	a3, 16f20bcc (16f36534 <g_sys_status_148>); movi	a6, 0 }
16f2132e:	06040fc0007c1e1e                  	{ j	16f21350 <main+0x188>; movi	a7, -241 }

16f21336 <main+0x16e>:
	...

16f21337 <main+0x16f>:
16f21337:	2206d240008a04be                  	{ movi	a11, 4; or	a10, a2, a2 }
16f2133f:	ffd825                                    	call8	16f210c0 <my_profiler_start>
16f21342:	007000                                    	waiti	0
16f21345:	2206d240008a04be                  	{ movi	a11, 4; or	a10, a2, a2 }
16f2134d:	ffd9e5                                    	call8	16f210ec <my_profiler_stop>
16f21350:	20a220                                    	or	a10, a2, a2
16f21353:	ffdce5                                    	call8	16f21120 <my_profiler_show>
16f21356:	2206d240008a01be                  	{ movi	a11, 1; or	a10, a2, a2 }
16f2135e:	ffd625                                    	call8	16f210c0 <my_profiler_start>
16f21361:	002492                                    	l32i	a9, a4, 0
16f21364:	0020c0                                    	memw
16f21367:	0229c2                                    	l32i	a12, a9, 8
16f2136a:	47ec37                                    	bbsi	a12, 3, 16f213b5 <main+0x1ed>
16f2136d:	0020c0                                    	memw
16f21370:	2958                                    	l32i.n	a5, a9, 8
16f21372:	145050                                    	extui	a5, a5, 0, 2
16f21375:	158c                                    	beqz.n	a5, 16f2137a <main+0x1b2>
16f21377:	111566                                    	bnei	a5, 1, 16f2138c <main+0x1c4>
16f2137a:	3506f5400c0af5ae                  	{ l32r	a10, 16f20bd0 (16f20a8c <__switchjump_table_xp_temp_3_11_91+0x1dc>); or	a11, a5, a5 }
16f21382:	0af7e5                                    	call8	16f2c300 <osal_print>
16f21385:	0020c0                                    	memw
16f21388:	0498                                    	l32i.n	a9, a4, 0
16f2138a:	0359                                    	s32i.n	a5, a3, 0
16f2138c:	0020c0                                    	memw
16f2138f:	29c8                                    	l32i.n	a12, a9, 8
16f21391:	10cc70                                    	and	a12, a12, a7
16f21394:	20cc60                                    	or	a12, a12, a6
16f21397:	0020c0                                    	memw
16f2139a:	29c9                                    	s32i.n	a12, a9, 8
16f2139c:	04a8                                    	l32i.n	a10, a4, 0
16f2139e:	0020c0                                    	memw
16f213a1:	2a88                                    	l32i.n	a8, a10, 8
16f213a3:	7b7c                                    	movi.n	a11, -9

16f213a5 <main+0x1dd>:
16f213a5:	0a06c8c0008618be                  	{ movi	a11, 8; and	a8, a8, a11 }
16f213ad:	2088b0                                    	or	a8, a8, a11
16f213b0:	0020c0                                    	memw
16f213b3:	2a89                                    	s32i.n	a8, a10, 8

16f213b5 <main+0x1ed>:
16f213b5:	2206d240008a01be                  	{ movi	a11, 1; or	a10, a2, a2 }
16f213bd:	ffd2e5                                    	call8	16f210ec <my_profiler_stop>
16f213c0:	0020c0                                    	memw
16f213c3:	03d8                                    	l32i.n	a13, a3, 0
16f213c5:	ed8c                                    	beqz.n	a13, 16f213d7 <main+0x20f>
16f213c7:	0020c0                                    	memw
16f213ca:	03e8                                    	l32i.n	a14, a3, 0
16f213cc:	230720bc0fe53e6e                  	{ bnei.w15	a14, 1, 16f21337 <main+0x16f>; nop }
16f213d4:	000b06                                    	j	16f21404 <main+0x23c>

16f213d7 <main+0x20f>:
16f213d7:	2206d240008a02be                  	{ movi	a11, 2; or	a10, a2, a2 }
16f213df:	ffce25                                    	call8	16f210c0 <my_profiler_start>
16f213e2:	07f425                                    	call8	16f29324 <aoe_proc_thread>
16f213e5:	2206d240008a02be                  	{ movi	a11, 2; or	a10, a2, a2 }
16f213ed:	ffcfe5                                    	call8	16f210ec <my_profiler_stop>
16f213f0:	07ffe5                                    	call8	16f293f0 <aoe_get_thread_status>
16f213f3:	220720bc0be5da0e                  	{ beqi.w15	a10, 1, 16f21350 <main+0x188>; nop }
16f213fb:	ffce06                                    	j	16f21337 <main+0x16f>

16f213fe <main+0x236>:
16f213fe:	00000000 df210000                                ......

16f21404 <main+0x23c>:
16f21404:	fddf21                                    	l32r	a2, 16f20b80 (e82000 <_memmap_seg_srom0_end+0x1e78>)
16f21407:	0b04414718806e3e                  	{ movi	a3, -2; movi	a10, 1 }
16f2140f:	00ee25                                    	call8	16f222f0 <timer_set_disable>
16f21412:	0020c0                                    	memw
16f21415:	9d22f2                                    	l32i	a15, a2, 0x274
16f21418:	10ff30                                    	and	a15, a15, a3
16f2141b:	20ff60                                    	or	a15, a15, a6
16f2141e:	0020c0                                    	memw
16f21421:	9d62f2                                    	s32i	a15, a2, 0x274
16f21424:	fdeca1                                    	l32r	a10, 16f20bd4 (16f20a74 <__switchjump_table_xp_temp_3_11_91+0x1c4>)
16f21427:	fdd8b1                                    	l32r	a11, 16f20b88 (16f20a44 <__switchjump_table_xp_temp_3_11_91+0x194>)
16f2142a:	fdd8c1                                    	l32r	a12, 16f20b8c (16f20a50 <__switchjump_table_xp_temp_3_11_91+0x1a0>)
16f2142d:	0aed25                                    	call8	16f2c300 <osal_print>
16f21430:	007000                                    	waiti	0
16f21433:	020c                                    	movi.n	a2, 0
16f21435:	f01d                                    	retw.n

16f21437 <main+0x26f>:
16f21437:	00000000 00000000                                ......

16f2143d <main+0x275>:
16f2143d:	000000                                        ...

16f21440 <main+0x278>:
16f21440:	150382471460fa9e                  	{ j	16f212de <main+0x116>; l32i	a5, a2, 4 }

16f21448 <main+0x280>:
	...

16f21450 <lsrc_create>:
16f21450:	006136                                    	entry	a1, 48
16f21453:	060460471400f18e                  	{ l32r	a8, 16f20bd8 (2ee00 <xthals_release_major+0x2b750>); movi	a7, 0 }
16f2145b:	006272                                    	s32i	a7, a2, 0
16f2145e:	220740a00c0533ce                  	{ blti.w15	a3, 1, 16f21506 <lsrc_create+0xb6>; nop }
16f21466:	220740801805f83e                  	{ blt.w15	a8, a3, 16f21506 <lsrc_create+0xb6>; nop }
16f2146e:	220740a00805b4ce                  	{ blti.w15	a4, 1, 16f21506 <lsrc_create+0xb6>; nop }
16f21476:	220740801805784e                  	{ blt.w15	a8, a4, 16f21506 <lsrc_create+0xb6>; nop }
16f2147e:	3206b34610eaf44e                  	{ or	a10, a4, a4; or	a11, a3, a3 }
16f21486:	0020f0                                    	nop
16f21489:	144665                                    	call8	16f358f0 <__divsi3>
16f2148c:	767ae6                                    	bgei	a10, 7, 16f21506 <lsrc_create+0xb6>
16f2148f:	0a044c40088110ae                  	{ movi	a10, 16; movi	a11, 76 }
16f21497:	0020f0                                    	nop
16f2149a:	00ec65                                    	call8	16f22360 <HI_ADSP_MALLOC>
16f2149d:	01a9                                    	s32i.n	a10, a1, 0
16f2149f:	063a16                                    	beqz	a10, 16f21506 <lsrc_create+0xb6>
16f214a2:	0c044c40008100be                  	{ movi	a11, 0; movi	a12, 76 }
16f214aa:	0020f0                                    	nop
16f214ad:	149025                                    	call8	16f35db0 <memset>
16f214b0:	fdcb91                                    	l32r	a9, 16f20bdc (16f36540 <g_sample_rate_tab_111>)
16f214b3:	08044d40008000be                  	{ movi	a11, 0; movi	a8, 13 }
16f214bb:	0d044c4400a0084e                  	{ loopgtz	a8, 16f214cf <lsrc_create+0x7f>; movi	a12, 12 }
16f214c3:	09a8                                    	l32i.n	a10, a9, 0
16f214c5:	0902890008013a4e                  	{ beq.w15	a10, a4, 16f214cf <lsrc_create+0x7f>; addi	a9, a9, 4 }
16f214cd:	bb1b                                    	addi.n	a11, a11, 1

16f214cf <lsrc_create+0x7f>:
16f214cf:	0903810308008cbe                  	{ bltu.w15	a12, a11, 16f214e5 <lsrc_create+0x95>; l32i	a8, a1, 0 }
16f214d7:	fdc2d1                                    	l32r	a13, 16f20be0 (16f36580 <g_ivt_sf_tab_112>)
16f214da:	01e8                                    	l32i.n	a14, a1, 0
16f214dc:	a0dbd0                                    	addx4	a13, a11, a13
16f214df:	002dd2                                    	l32i	a13, a13, 0
16f214e2:	086ed2                                    	s32i	a13, a14, 32

16f214e5 <lsrc_create+0x95>:
16f214e5:	0020f0                                    	nop
16f214e8:	0f03c14300a0064e                  	{ loopgtz	a6, 16f214f8 <lsrc_create+0xa8>; l32i	a14, a1, 0 }

16f214f0 <lsrc_create+0xa0>:
16f214f0:	0902a8420881087e                  	{ s32i	a7, a8, 36; addi	a8, a8, 4 }

16f214f8 <lsrc_create+0xa8>:
16f214f8:	0e59                                    	s32i.n	a5, a14, 0
16f214fa:	1e69                                    	s32i.n	a6, a14, 4
16f214fc:	2e39                                    	s32i.n	a3, a14, 8
16f214fe:	3e39                                    	s32i.n	a3, a14, 12
16f21500:	4e49                                    	s32i.n	a4, a14, 16
16f21502:	02e9                                    	s32i.n	a14, a2, 0
16f21504:	f01d                                    	retw.n

16f21506 <lsrc_create+0xb6>:
16f21506:	f01d                                    	retw.n

16f21508 <lsrc_destroy>:
16f21508:	004136                                    	entry	a1, 32
16f2150b:	928c                                    	beqz.n	a2, 16f21518 <lsrc_destroy+0x10>
16f2150d:	3206d240088a00ae                  	{ movi	a10, 16; or	a11, a2, a2 }
16f21515:	00e5a5                                    	call8	16f22370 <HI_ADSP_FREE>

16f21518 <lsrc_destroy+0x10>:
16f21518:	f01d                                    	retw.n

16f2151a <lsrc_destroy+0x12>:
16f2151a:	000000                                        ...

16f2151d <lsrc_destroy+0x15>:
16f2151d:	000000                                        ...

16f21520 <lsrc_get_max_output_num>:
16f21520:	004136                                    	entry	a1, 32
16f21523:	92cc                                    	bnez.n	a2, 16f21530 <lsrc_get_max_output_num+0x10>
16f21525:	f27c                                    	movi.n	a2, -1
16f21527:	f01d                                    	retw.n

16f21529 <lsrc_get_max_output_num+0x9>:
16f21529:	00000000 ae000000                                .......

16f21530 <lsrc_get_max_output_num+0x10>:
16f21530:	32069341048a12ae                  	{ l32i	a10, a2, 16; or	a11, a3, a3 }
16f21538:	143165                                    	call8	16f35850 <__mulsi3>
16f2153b:	0222b2                                    	l32i	a11, a2, 8
16f2153e:	143b25                                    	call8	16f358f0 <__divsi3>
16f21541:	01ca22                                    	addi	a2, a10, 1
16f21544:	000090                                    	retw

16f21547 <lsrc_get_max_output_num+0x27>:
16f21547:	000000                                        ...

16f2154a <lsrc_get_max_output_num+0x2a>:
	...

16f2154c <lsrc_get_min_input_num>:
16f2154c:	004136                                    	entry	a1, 32
16f2154f:	22cc                                    	bnez.n	a2, 16f21555 <lsrc_get_min_input_num+0x9>
16f21551:	f27c                                    	movi.n	a2, -1
16f21553:	f01d                                    	retw.n

16f21555 <lsrc_get_min_input_num+0x9>:
16f21555:	042242                                    	l32i	a4, a2, 16
16f21558:	22069340148a12be                  	{ l32i	a11, a2, 8; or	a10, a3, a3 }
16f21560:	142ee5                                    	call8	16f35850 <__mulsi3>
16f21563:	3406b44418eaeaae                  	{ or	a3, a10, a10; or	a11, a4, a4 }
16f2156b:	143865                                    	call8	16f358f0 <__divsi3>
16f2156e:	202aa0                                    	or	a2, a10, a10
16f21571:	2206b34618eaf44e                  	{ or	a11, a4, a4; or	a10, a3, a3 }
16f21579:	143f65                                    	call8	16f35970 <__modsi3>
16f2157c:	01c282                                    	addi	a8, a2, 1
16f2157f:	9328a0                                    	movnez	a2, a8, a10
16f21582:	f01d                                    	retw.n

16f21584 <lsrc_get_min_input_num+0x38>:
16f21584:	00000000 00000000                                ......

16f2158a <lsrc_get_min_input_num+0x3e>:
	...

16f2158c <lsrc_check_update>:
16f2158c:	004136                                    	entry	a1, 32
16f2158f:	38038241048002ae                  	{ l32i	a10, a2, 16; l32i	a8, a2, 12 }
16f21597:	060382400c80129e                  	{ l32i	a9, a2, 4; l32i	a7, a2, 0 }
16f2159f:	1e0c                                    	movi.n	a14, 1
16f215a1:	25069a4204fa483e                  	{ sub	a8, a8, a3; sub	a10, a10, a4 }
16f215a9:	170699411cfa475e                  	{ sub	a7, a7, a5; sub	a9, a9, a6 }
16f215b1:	3706be4608e5de9e                  	{ movnez	a9, a14, a9; movnez	a7, a14, a7 }
16f215b9:	0906be4610e6ceae                  	{ movnez	a10, a14, a10; movnez	a8, a14, a8 }
16f215c1:	3806874204f138ae                  	{ add	a8, a8, a10; add	a7, a7, a9 }
16f215c9:	020400401ce0278e                  	{ add	a3, a7, a8; movi	a2, 0 }
16f215d1:	932e30                                    	movnez	a2, a14, a3
16f215d4:	f01d                                    	retw.n

16f215d6 <lsrc_check_update+0x4a>:
	...

16f215d8 <lsrc_update_change>:
16f215d8:	004136                                    	entry	a1, 32
16f215db:	38038241048002ae                  	{ l32i	a10, a2, 16; l32i	a8, a2, 12 }
16f215e3:	060382400c80129e                  	{ l32i	a9, a2, 4; l32i	a7, a2, 0 }
16f215eb:	1b0c                                    	movi.n	a11, 1
16f215ed:	25069a4204fa483e                  	{ sub	a8, a8, a3; sub	a10, a10, a4 }
16f215f5:	170699411cfa475e                  	{ sub	a7, a7, a5; sub	a9, a9, a6 }
16f215fd:	3706bb4608e5db9e                  	{ movnez	a9, a11, a9; movnez	a7, a11, a7 }
16f21605:	0906bb4610e6cbae                  	{ movnez	a10, a11, a10; movnez	a8, a11, a8 }
16f2160d:	3806874204f138ae                  	{ add	a8, a8, a10; add	a7, a7, a9 }
16f21615:	0c040c411ce0278e                  	{ add	a7, a7, a8; movi	a12, 12 }
16f2161d:	0b042d24000067ae                  	{ beqz.w15	a7, 16f21670 <lsrc_update_change+0x98>; movi	a10, 13 }
16f21625:	1269                                    	s32i.n	a6, a2, 4
16f21627:	4249                                    	s32i.n	a4, a2, 16
16f21629:	2239                                    	s32i.n	a3, a2, 8
16f2162b:	3239                                    	s32i.n	a3, a2, 12
16f2162d:	0259                                    	s32i.n	a5, a2, 0
16f2162f:	020460451400fb5e                  	{ l32r	a5, 16f20bdc (16f36540 <g_sample_rate_tab_111>); movi	a3, 0 }
16f21637:	5239                                    	s32i.n	a3, a2, 20
16f21639:	6239                                    	s32i.n	a3, a2, 24
16f2163b:	7239                                    	s32i.n	a3, a2, 28
16f2163d:	1306d34400aa1a4e                  	{ loopgtz	a10, 16f21651 <lsrc_update_change+0x79>; or	a9, a3, a3 }
16f21645:	05b8                                    	l32i.n	a11, a5, 0
16f21647:	0502850008013b4e                  	{ beq.w15	a11, a4, 16f21651 <lsrc_update_change+0x79>; addi	a5, a5, 4 }
16f2164f:	991b                                    	addi.n	a9, a9, 1

16f21651 <lsrc_update_change+0x79>:
16f21651:	103c97                                    	bltu	a12, a9, 16f21665 <lsrc_update_change+0x8d>
16f21654:	fd63d1                                    	l32r	a13, 16f20be0 (16f36580 <g_ivt_sf_tab_112>)
16f21657:	0020f0                                    	nop
16f2165a:	0020f0                                    	nop
16f2165d:	a0d9d0                                    	addx4	a13, a9, a13
16f21660:	0dd8                                    	l32i.n	a13, a13, 0
16f21662:	0862d2                                    	s32i	a13, a2, 32
16f21665:	07a676                                    	loopgtz	a6, 16f21670 <lsrc_update_change+0x98>

16f21668 <lsrc_update_change+0x90>:
16f21668:	0302a2420881023e                  	{ s32i	a3, a2, 36; addi	a2, a2, 4 }

16f21670 <lsrc_update_change+0x98>:
16f21670:	f01d                                    	retw.n

16f21672 <lsrc_update_change+0x9a>:
	...

16f21674 <lsrc_flush>:
16f21674:	004136                                    	entry	a1, 32
16f21677:	080460450c00e96e                  	{ l32r	a6, 16f20bdc (16f36540 <g_sample_rate_tab_111>); movi	a8, 0 }
16f2167f:	0703a2410881128e                  	{ s32i	a8, a2, 20; l32i	a7, a2, 16 }
16f21687:	03042d411080128e                  	{ s32i	a8, a2, 24; movi	a3, 13 }
16f2168f:	1906d84400a9034e                  	{ loopgtz	a3, 16f216a3 <lsrc_flush+0x2f>; or	a5, a8, a8 }
16f21697:	0648                                    	l32i.n	a4, a6, 0
16f21699:	070286000801247e                  	{ beq.w15	a4, a7, 16f216a3 <lsrc_flush+0x2f>; addi	a6, a6, 4 }
16f216a1:	551b                                    	addi.n	a5, a5, 1

16f216a3 <lsrc_flush+0x2f>:
16f216a3:	c90c                                    	movi.n	a9, 12
16f216a5:	0c3957                                    	bltu	a9, a5, 16f216b5 <lsrc_flush+0x41>
16f216a8:	fd4ea1                                    	l32r	a10, 16f20be0 (16f36580 <g_ivt_sf_tab_112>)
16f216ab:	0020f0                                    	nop
16f216ae:	a0a5a0                                    	addx4	a10, a5, a10
16f216b1:	0aa8                                    	l32i.n	a10, a10, 0
16f216b3:	82a9                                    	s32i.n	a10, a2, 32

16f216b5 <lsrc_flush+0x41>:
16f216b5:	12b8                                    	l32i.n	a11, a2, 4
16f216b7:	ab9c                                    	beqz.n	a11, 16f216d5 <lsrc_flush+0x61>
16f216b9:	2206d2400089005e                  	{ movi	a5, 0; or	a6, a2, a2 }
16f216c1:	0d8076                                    	loop	a0, 16f216d2 <lsrc_flush+0x5e>
16f216c4:	9689                                    	s32i.n	a8, a6, 36
16f216c6:	12c8                                    	l32i.n	a12, a2, 4
16f216c8:	551b                                    	addi.n	a5, a5, 1
16f216ca:	07028605080125ce                  	{ bgeu.w15	a5, a12, 16f216d5 <lsrc_flush+0x61>; addi	a6, a6, 4 }

16f216d2 <lsrc_flush+0x5e>:
16f216d2:	fffac6                                    	j	16f216c1 <lsrc_flush+0x4d>

16f216d5 <lsrc_flush+0x61>:
16f216d5:	f01d                                    	retw.n

16f216d7 <lsrc_flush+0x63>:
	...

16f216d8 <lsrc_check_do_src>:
16f216d8:	004136                                    	entry	a1, 32
16f216db:	220382410480124e                  	{ l32i	a4, a2, 16; l32i	a3, a2, 8 }
16f216e3:	280382021801634e                  	{ bne.w15	a3, a4, 16f216f3 <lsrc_check_do_src+0x1b>; l32i	a8, a2, 24 }
16f216eb:	02040020000048ae                  	{ beqz.w15	a8, 16f216f7 <lsrc_check_do_src+0x1f>; movi	a2, 0 }
16f216f3:	120c                                    	movi.n	a2, 1
16f216f5:	f01d                                    	retw.n

16f216f7 <lsrc_check_do_src+0x1f>:
16f216f7:	f01d                                    	retw.n

16f216f9 <lsrc_check_do_src+0x21>:
16f216f9:	000000                                        ...

16f216fc <lsrc_set_speed_adjust>:
16f216fc:	004136                                    	entry	a1, 32
16f216ff:	0722a2                                    	l32i	a10, a2, 28
16f21702:	f03d                                    	nop.n
16f21704:	2804240008012a3e                  	{ beq.w15	a10, a3, 16f2174c <lsrc_set_speed_adjust+0x50>; movi	a8, 100 }
16f2170c:	18040b801c1ef83e                  	{ blt.w15	a8, a3, 16f2174c <lsrc_set_speed_adjust+0x50>; movi	a9, -101 }
16f21714:	34a937                                    	bge	a9, a3, 16f2174c <lsrc_set_speed_adjust+0x50>
16f21717:	080401200400daae                  	{ beqz.w15	a10, 16f21753 <lsrc_set_speed_adjust+0x57>; movi	a9, 1 }

16f2171f <lsrc_set_speed_adjust+0x23>:
16f2171f:	b3ac                                    	beqz.n	a3, 16f2174e <lsrc_set_speed_adjust+0x52>
16f21721:	0b02b3411881123e                  	{ s32i	a3, a2, 28; addmi	a11, a3, 0x400 }
16f21729:	3a03e2420460ebbe                  	{ addi	a11, a11, -24; l32i	a10, a2, 12 }
16f21731:	0020f0                                    	nop
16f21734:	1411a5                                    	call8	16f35850 <__mulsi3>
16f21737:	e8a3b2                                    	movi	a11, 0x3e8
16f2173a:	0020f0                                    	nop
16f2173d:	141b25                                    	call8	16f358f0 <__divsi3>

16f21740 <lsrc_set_speed_adjust+0x44>:
16f21740:	0b042040108002ae                  	{ s32i	a10, a2, 8; movi	a10, 0 }
16f21748:	52a9                                    	s32i.n	a10, a2, 20
16f2174a:	f01d                                    	retw.n

16f2174c <lsrc_set_speed_adjust+0x50>:
16f2174c:	f01d                                    	retw.n

16f2174e <lsrc_set_speed_adjust+0x52>:
16f2174e:	6299                                    	s32i.n	a9, a2, 24
16f21750:	fff346                                    	j	16f21721 <lsrc_set_speed_adjust+0x25>

16f21753 <lsrc_set_speed_adjust+0x57>:
16f21753:	038c                                    	beqz.n	a3, 16f21757 <lsrc_set_speed_adjust+0x5b>
16f21755:	6299                                    	s32i.n	a9, a2, 24
16f21757:	fc4a56                                    	bnez	a10, 16f2171f <lsrc_set_speed_adjust+0x23>
16f2175a:	fff0c6                                    	j	16f21721 <lsrc_set_speed_adjust+0x25>

16f2175d <lsrc_set_speed_adjust+0x61>:
16f2175d:	000000                                        ...

16f21760 <lsrc_process_frame>:
16f21760:	014136                                    	entry	a1, 160
16f21763:	1a6122                                    	s32i	a2, a1, 104
16f21766:	a139                                    	s32i.n	a3, a1, 40
16f21768:	0903a2430880014e                  	{ s32i	a4, a1, 52; l32i	a8, a2, 0 }
16f21770:	040695400c8b12fe                  	{ l32i	a15, a2, 4; or	a12, a5, a5 }
16f21778:	0d042045188011fe                  	{ s32i	a15, a1, 92; movi	a13, 0 }
16f21780:	2f03e2221c61880e                  	{ beqi.w15	a8, 16, 16f21b76 <lsrc_process_frame+0x416>; l32i	a14, a2, 24 }
16f21788:	146152                                    	s32i	a5, a1, 80
16f2178b:	731e16                                    	beqz	a14, 16f21ec0 <lsrc_process_frame+0x760>
16f2178e:	1421e2                                    	l32i	a14, a1, 80
16f21791:	022252                                    	l32i	a5, a2, 8
16f21794:	0020f0                                    	nop
16f21797:	0703a2200821dece                  	{ blti.w15	a14, 1, 16f218f5 <lsrc_process_frame+0x195>; l32i	a7, a2, 16 }
16f2179f:	220700861825357e                  	{ bne.w15	a5, a7, 16f218a8 <lsrc_process_frame+0x148>; nop }
16f217a7:	2a1fa6                                    	blti	a15, 1, 16f217d5 <lsrc_process_frame+0x75>
16f217aa:	20a440                                    	or	a10, a4, a4
16f217ad:	0306d24500aa0f4e                  	{ loopgtz	a15, 16f217c5 <lsrc_process_frame+0x65>; or	a8, a2, a2 }
16f217b5:	080288420c81089e                  	{ l32i	a9, a8, 36; addi	a8, a8, 4 }
16f217bd:	0b02aa4000810a9e                  	{ s32i	a9, a10, 0; addi	a10, a10, 4 }

16f217c5 <lsrc_process_frame+0x65>:
16f217c5:	1a2172                                    	l32i	a7, a1, 104
16f217c8:	f03d                                    	nop.n
16f217ca:	0020f0                                    	nop

16f217cd <lsrc_process_frame+0x6d>:
16f217cd:	060387401481175e                  	{ l32i	a5, a7, 8; l32i	a7, a7, 16 }

16f217d5 <lsrc_process_frame+0x75>:
16f217d5:	1a2192                                    	l32i	a9, a1, 104
16f217d8:	180c                                    	movi.n	a8, 1
16f217da:	e189                                    	s32i.n	a8, a1, 56
16f217dc:	0d042041108009de                  	{ s32i	a13, a9, 24; movi	a12, 0 }
16f217e4:	020401061c20357e                  	{ bne.w15	a5, a7, 16f2190d <lsrc_process_frame+0x1ad>; movi	a3, 1 }
16f217ec:	1421a2                                    	l32i	a10, a1, 80
16f217ef:	41a9                                    	s32i.n	a10, a1, 16
16f217f1:	230720a40c65dace                  	{ blti.w15	a10, 1, 16f21b70 <lsrc_process_frame+0x410>; nop }
16f217f9:	3a03a14618e5ecce                  	{ or	a11, a12, a12; l32i	a10, a1, 92 }
16f21801:	0020f0                                    	nop
16f21804:	1404a5                                    	call8	16f35850 <__mulsi3>
16f21807:	1721b2                                    	l32i	a11, a1, 92
16f2180a:	0f06aa45088701ae                  	{ s32i	a10, a1, 84; slli	a12, a10, 2 }
16f21812:	f03d                                    	nop.n
16f21814:	1f06ab45108701ce                  	{ s32i	a12, a1, 88; slli	a13, a11, 2 }
16f2181c:	2306b343188a11de                  	{ s32i	a13, a1, 60; or	a10, a3, a3 }
16f21824:	0020f0                                    	nop
16f21827:	1402a5                                    	call8	16f35850 <__mulsi3>
16f2182a:	11eae0                                    	slli	a14, a10, 2
16f2182d:	1861e2                                    	s32i	a14, a1, 96
16f21830:	280381451482118e                  	{ l32i	a8, a1, 88; l32i	a9, a1, 40 }
16f21838:	1a038146048311ae                  	{ l32i	a10, a1, 96; l32i	a11, a1, 52 }
16f21840:	f03d                                    	nop.n

16f21842 <lsrc_process_frame+0xe2>:
16f21842:	080688451c92119e                  	{ l32i	a9, a1, 92; add	a8, a8, a9 }
16f2184a:	0020f0                                    	nop
16f2184d:	2b06ca4500b2194e                  	{ loopgtz	a9, 16f21865 <lsrc_process_frame+0x105>; add	a10, a10, a11 }
16f21855:	080288400481089e                  	{ l32i	a9, a8, 0; addi	a8, a8, 4 }
16f2185d:	0b02aa4000810a9e                  	{ s32i	a9, a10, 0; addi	a10, a10, 4 }

16f21865 <lsrc_process_frame+0x105>:
16f21865:	3c038146048301fe                  	{ l32i	a15, a1, 96; l32i	a12, a1, 60 }
16f2186d:	1c0381451c8511ee                  	{ l32i	a14, a1, 92; l32i	a13, a1, 84 }
16f21875:	1621b2                                    	l32i	a11, a1, 88
16f21878:	0a0381431ce52fce                  	{ add	a15, a15, a12; l32i	a10, a1, 80 }
16f21880:	1f06ad46009301fe                  	{ s32i	a15, a1, 96; add	a13, a13, a14 }
16f21888:	3d06ab45089201de                  	{ s32i	a13, a1, 84; add	a11, a11, a12 }
16f21890:	3b02aac5109f01be                  	{ s32i	a11, a1, 88; addi	a10, a10, -1 }
16f21898:	1461a2                                    	s32i	a10, a1, 80
16f2189b:	f91a56                                    	bnez	a10, 16f21830 <lsrc_process_frame+0xd0>
16f2189e:	4128                                    	l32i.n	a2, a1, 16
16f218a0:	223a                                    	add.n	a2, a2, a3
16f218a2:	f01d                                    	retw.n

16f218a4 <lsrc_process_frame+0x144>:
16f218a4:	00000000                                ....

16f218a8 <lsrc_process_frame+0x148>:
16f218a8:	241fa6                                    	blti	a15, 1, 16f218d0 <lsrc_process_frame+0x170>
16f218ab:	02ad                                    	mov.n	a10, a2
16f218ad:	0306d34500aa1f4e                  	{ loopgtz	a15, 16f218c5 <lsrc_process_frame+0x165>; or	a8, a3, a3 }
16f218b5:	0a028a400481089e                  	{ l32i	a9, a8, 0; addi	a10, a10, 4 }
16f218bd:	0902a84200810a9e                  	{ s32i	a9, a10, 32; addi	a8, a8, 4 }

16f218c5 <lsrc_process_frame+0x165>:
16f218c5:	1a2172                                    	l32i	a7, a1, 104

16f218c8 <lsrc_process_frame+0x168>:
16f218c8:	060387401481175e                  	{ l32i	a5, a7, 8; l32i	a7, a7, 16 }

16f218d0 <lsrc_process_frame+0x170>:
16f218d0:	2a03e1471c66ec9e                  	{ addi	a9, a12, -1; l32i	a10, a1, 104 }
16f218d8:	090420450080019e                  	{ s32i	a9, a1, 80; movi	a8, 0 }
16f218e0:	e189                                    	s32i.n	a8, a1, 56
16f218e2:	0304204110801ade                  	{ s32i	a13, a10, 24; movi	a3, 0 }
16f218ea:	0c0401400060071e                  	{ j	16f21905 <lsrc_process_frame+0x1a5>; movi	a12, 1 }

16f218f2 <lsrc_process_frame+0x192>:
16f218f2:	000000                                        ...

16f218f5 <lsrc_process_frame+0x195>:
16f218f5:	0c06dd40008b10be                  	{ movi	a11, 0; or	a12, a13, a13 }
16f218fd:	03042043108011be                  	{ s32i	a11, a1, 56; movi	a3, 0 }
16f21905:	2307609c0fc5157e                  	{ beq.w15	a5, a7, 16f217ec <lsrc_process_frame+0x8c>; nop }
16f2190d:	1421e2                                    	l32i	a14, a1, 80
16f21910:	fcb521                                    	l32r	a2, 16f20be4 (7fff <xthals_release_major+0x494f>)
16f21913:	1f069e200c0b0ece                  	{ blti.w15	a14, 1, 16f21939 <lsrc_process_frame+0x1d9>; or	a13, a14, a14 }
16f2191b:	1a2142                                    	l32i	a4, a1, 104
16f2191e:	5448                                    	l32i.n	a4, a4, 20
16f21920:	230740801ca5b47e                  	{ blt.w15	a4, a7, 16f21eda <lsrc_process_frame+0x77a>; nop }
16f21928:	1a21a2                                    	l32i	a10, a1, 104
16f2192b:	ffcd82                                    	addi	a8, a13, -1
16f2192e:	1706b445009a118e                  	{ s32i	a8, a1, 80; sub	a9, a4, a7 }
16f21936:	056a92                                    	s32i	a9, a10, 20
16f21939:	1421b2                                    	l32i	a11, a1, 80
16f2193c:	1a06fb200c2b9bce                  	{ blti.w15	a11, 1, 16f21b30 <lsrc_process_frame+0x3d0>; or	a13, a11, a11 }
16f21944:	2d06bc40108a01ce                  	{ s32i	a12, a1, 8; or	a10, a12, a12 }
16f2194c:	3b03a140088511de                  	{ s32i	a13, a1, 4; l32i	a11, a1, 92 }
16f21954:	13efa5                                    	call8	16f35850 <__mulsi3>
16f21957:	3a03a14718e5faae                  	{ or	a15, a10, a10; l32i	a11, a1, 92 }
16f2195f:	2503a145088601ae                  	{ s32i	a10, a1, 84; l32i	a4, a1, 104 }
16f21967:	2b03a14718a00fee                  	{ slli	a15, a15, 2; l32i	a10, a1, 8 }
16f2196f:	1661f2                                    	s32i	a15, a1, 88
16f21972:	1503a44700a10bee                  	{ slli	a12, a11, 2; l32i	a4, a4, 20 }
16f2197a:	1b02aa43188001ce                  	{ s32i	a12, a1, 60; addi	a10, a10, 1 }
16f21982:	0020f0                                    	nop
16f21985:	13eca5                                    	call8	16f35850 <__mulsi3>
16f21988:	118ae0                                    	slli	a8, a10, 2
16f2198b:	0c6182                                    	s32i	a8, a1, 48
16f2198e:	230720820825747e                  	{ bge.w15	a4, a7, 16f21ae0 <lsrc_process_frame+0x380>; nop }
16f21996:	3a03a14618e5e33e                  	{ or	a11, a3, a3; l32i	a10, a1, 92 }
16f2199e:	0020f0                                    	nop
16f219a1:	13eae5                                    	call8	16f35850 <__mulsi3>
16f219a4:	1621e2                                    	l32i	a14, a1, 88
16f219a7:	0c038142148311be                  	{ l32i	a11, a1, 40; l32i	a13, a1, 48 }
16f219af:	180381451c8511ce                  	{ l32i	a12, a1, 92; l32i	a9, a1, 84 }
16f219b7:	2a068e430cf33dbe                  	{ add	a13, a13, a11; add	a14, a14, a11 }
16f219bf:	1d06a942089201ee                  	{ s32i	a14, a1, 36; add	a9, a9, a12 }
16f219c7:	0f06aa42008701de                  	{ s32i	a13, a1, 32; slli	a12, a10, 2 }
16f219cf:	1b06a946009a11ce                  	{ s32i	a12, a1, 96; addx4	a9, a9, a11 }
16f219d7:	196192                                    	s32i	a9, a1, 100
16f219da:	1721f2                                    	l32i	a15, a1, 92
16f219dd:	180381460483013e                  	{ l32i	a3, a1, 96; l32i	a8, a1, 52 }
16f219e5:	0020f0                                    	nop
16f219e8:	220760a008057fce                  	{ blti.w15	a15, 1, 16f21ab8 <lsrc_process_frame+0x358>; nop }
16f219f0:	082172                                    	l32i	a7, a1, 32
16f219f3:	140381401ce2338e                  	{ add	a3, a3, a8; l32i	a5, a1, 36 }
16f219fb:	1a2162                                    	l32i	a6, a1, 104
16f219fe:	0020f0                                    	nop
16f21a01:	0020f0                                    	nop
16f21a04:	5648                                    	l32i.n	a4, a6, 20

16f21a06 <lsrc_process_frame+0x2a6>:
16f21a06:	06038641048206be                  	{ l32i	a11, a6, 16; l32i	a6, a6, 32 }
16f21a0e:	0798                                    	l32i.n	a9, a7, 0
16f21a10:	0303a5461880019e                  	{ s32i	a9, a1, 108; l32i	a2, a5, 0 }
16f21a18:	3406bb4610fae66e                  	{ or	a10, a6, a6; sub	a11, a11, a4 }
16f21a20:	0020f0                                    	nop
16f21a23:	13e2e5                                    	call8	16f35850 <__mulsi3>
16f21a26:	0b06ba4708ab2fae                  	{ srai	a13, a10, 31; or	a12, a10, a10 }
16f21a2e:	3206af4610eee22e                  	{ or	a10, a2, a2; srai	a11, a2, 31 }
16f21a36:	0020f0                                    	nop
16f21a39:	0aa665                                    	call8	16f2c4a0 <__muldi3>
16f21a3c:	1b2122                                    	l32i	a2, a1, 108
16f21a3f:	1e61b2                                    	s32i	a11, a1, 120
16f21a42:	3606b64610eae44e                  	{ or	a10, a4, a4; or	a11, a6, a6 }
16f21a4a:	2306af47008c012e                  	{ s32i	a2, a1, 112; srai	a2, a2, 31 }
16f21a52:	0020f0                                    	nop
16f21a55:	13dfa5                                    	call8	16f35850 <__mulsi3>
16f21a58:	0acd                                    	mov.n	a12, a10
16f21a5a:	2503a14708a72fae                  	{ srai	a13, a10, 31; l32i	a4, a1, 120 }
16f21a62:	32069247048a01ae                  	{ l32i	a10, a1, 112; or	a11, a2, a2 }
16f21a6a:	0020f0                                    	nop
16f21a6d:	0aa325                                    	call8	16f2c4a0 <__muldi3>
16f21a70:	2a06e4410c12fd2e                  	{ l32r	a2, 16f20be4 (7fff <xthals_release_major+0x494f>); add	a10, a4, a11 }
16f21a78:	41aea0                                    	srli	a10, a10, 14
16f21a7b:	3b06af4300ae2fae                  	{ srai	a12, a10, 15; srai	a11, a10, 31 }
16f21a83:	0d069b421cfb6b2e                  	{ xor	a11, a11, a2; sub	a12, a11, a12 }
16f21a8b:	2c069b460c86019e                  	{ l32i	a9, a1, 100; movnez	a10, a11, a12 }
16f21a93:	0702a74610a11a0e                  	{ slli	a10, a10, 16; addi	a7, a7, 4 }
16f21a9b:	0502a540008113ae                  	{ s32i	a10, a3, 0; addi	a5, a5, 4 }
16f21aa3:	0202a31a1be1b59e                  	{ bne.w15	a5, a9, 16f219fb <lsrc_process_frame+0x29b>; addi	a3, a3, 4 }
16f21aab:	1a2142                                    	l32i	a4, a1, 104
16f21aae:	2458                                    	l32i.n	a5, a4, 8
16f21ab0:	140384410481047e                  	{ l32i	a7, a4, 16; l32i	a4, a4, 20 }

16f21ab8 <lsrc_process_frame+0x358>:
16f21ab8:	f1a8                                    	l32i.n	a10, a1, 60
16f21aba:	280381460486019e                  	{ l32i	a9, a1, 96; l32i	a8, a1, 104 }
16f21ac2:	e168                                    	l32i.n	a6, a1, 56
16f21ac4:	445a                                    	add.n	a4, a4, a5
16f21ac6:	1b06a9410892084e                  	{ s32i	a4, a8, 20; add	a9, a9, a10 }
16f21ace:	1302a6460080119e                  	{ s32i	a9, a1, 96; addi	a3, a6, 1 }
16f21ad6:	e139                                    	s32i.n	a3, a1, 56
16f21ad8:	230760981fc5f47e                  	{ blt.w15	a4, a7, 16f219da <lsrc_process_frame+0x27a>; nop }
16f21ae0:	0a0381431c8511ee                  	{ l32i	a14, a1, 60; l32i	a11, a1, 80 }
16f21ae8:	08038146148311ce                  	{ l32i	a12, a1, 104; l32i	a9, a1, 48 }
16f21af0:	1e0381451c85118e                  	{ l32i	a8, a1, 92; l32i	a15, a1, 84 }
16f21af8:	06069445149911de                  	{ l32i	a13, a1, 88; sub	a4, a4, a7 }
16f21b00:	1f06a94108920c4e                  	{ s32i	a4, a12, 20; add	a9, a9, a14 }
16f21b08:	3906af430093019e                  	{ s32i	a9, a1, 48; add	a15, a15, a8 }
16f21b10:	1f06ad45089301fe                  	{ s32i	a15, a1, 84; add	a13, a13, a14 }
16f21b18:	3b02abc5109f11de                  	{ s32i	a13, a1, 88; addi	a11, a11, -1 }
16f21b20:	1461b2                                    	s32i	a11, a1, 80
16f21b23:	e67b56                                    	bnez	a11, 16f2198e <lsrc_process_frame+0x22e>
16f21b26:	1c038140148001de                  	{ l32i	a13, a1, 8; l32i	a12, a1, 4 }
16f21b2e:	ccda                                    	add.n	a12, a12, a13
16f21b30:	1721e2                                    	l32i	a14, a1, 92
16f21b33:	391ea6                                    	blti	a14, 1, 16f21b70 <lsrc_process_frame+0x410>
16f21b36:	1a2172                                    	l32i	a7, a1, 104
16f21b39:	3c06bc4610eaeeee                  	{ or	a10, a14, a14; or	a11, a12, a12 }
16f21b41:	0020f0                                    	nop
16f21b44:	13d0a5                                    	call8	16f35850 <__mulsi3>
16f21b47:	380381421485118e                  	{ l32i	a8, a1, 40; l32i	a9, a1, 92 }
16f21b4f:	0020f0                                    	nop
16f21b52:	0020f0                                    	nop
16f21b55:	0020f0                                    	nop
16f21b58:	0906ca4500ba094e                  	{ loopgtz	a9, 16f21b70 <lsrc_process_frame+0x410>; addx4	a8, a10, a8 }
16f21b60:	060287400481189e                  	{ l32i	a9, a8, 0; addi	a7, a7, 4 }
16f21b68:	0902a8420081079e                  	{ s32i	a9, a7, 32; addi	a8, a8, 4 }
16f21b70:	e128                                    	l32i.n	a2, a1, 56
16f21b72:	f01d                                    	retw.n

16f21b74 <lsrc_process_frame+0x414>:
	...

16f21b76 <lsrc_process_frame+0x416>:
16f21b76:	0a0282410490027e                  	{ l32i	a7, a2, 16; addi	a10, a2, 64 }
16f21b7e:	18053ac00cc0242e                  	{ ae_l32.i	aed1, a2, 16; ae_l32.i	aed0, a10, -32 }
16f21b86:	1a8355033401b13e                  	{ nop; nop; ae_mul32.ll	aed0, aed0, aed1 }
16f21b8e:	230700c000e5d69e                  	{ ae_movad32.l	a9, aed0; nop }
16f21b96:	6199                                    	s32i.n	a9, a1, 24
16f21b98:	3506f52000a89eae                  	{ beqz.w15	a14, 16f2216e <lsrc_process_frame+0xa0e>; or	a3, a5, a5 }
16f21ba0:	2403c220088053ce                  	{ blti.w15	a3, 1, 16f2202c <lsrc_process_frame+0x8cc>; l32i	a5, a2, 8 }
16f21ba8:	2307008618a5b57e                  	{ bne.w15	a5, a7, 16f220c3 <lsrc_process_frame+0x963>; nop }
16f21bb0:	741fa6                                    	blti	a15, 1, 16f21c28 <lsrc_process_frame+0x4c8>
16f21bb3:	028d                                    	mov.n	a8, a2
16f21bb5:	2406f442086a20fe                  	{ extui	a9, a15, 0, 3; or	a10, a4, a4 }
16f21bbd:	3f06df4500aa194e                  	{ loopgtz	a9, 16f21bd5 <lsrc_process_frame+0x475>; or	a11, a15, a15 }

16f21bc5 <lsrc_process_frame+0x465>:
16f21bc5:	080288420c8108ce                  	{ l32i	a12, a8, 36; addi	a8, a8, 4 }
16f21bcd:	2a02aa4000800ace                  	{ s16i	a12, a10, 0; addi	a10, a10, 2 }

16f21bd5 <lsrc_process_frame+0x475>:
16f21bd5:	2193b0                                    	srai	a9, a11, 3
16f21bd8:	0020f0                                    	nop
16f21bdb:	f03d                                    	nop.n
16f21bdd:	47a976                                    	loopgtz	a9, 16f21c28 <lsrc_process_frame+0x4c8>

16f21be0 <lsrc_process_frame+0x480>:
16f21be0:	080288420c88089e                  	{ l32i	a9, a8, 36; addi	a8, a8, 32 }
16f21be8:	2803a84000801a9e                  	{ s16i	a9, a10, 0; l32i	a9, a8, 8 }
16f21bf0:	3803a84008801a9e                  	{ s16i	a9, a10, 2; l32i	a9, a8, 12 }
16f21bf8:	0803a84010811a9e                  	{ s16i	a9, a10, 4; l32i	a9, a8, 16 }
16f21c00:	1803a84018811a9e                  	{ s16i	a9, a10, 6; l32i	a9, a8, 20 }
16f21c08:	2803a84100811a9e                  	{ s16i	a9, a10, 8; l32i	a9, a8, 24 }
16f21c10:	3803a84108811a9e                  	{ s16i	a9, a10, 10; l32i	a9, a8, 28 }
16f21c18:	0803a84110821a9e                  	{ s16i	a9, a10, 12; l32i	a9, a8, 32 }
16f21c20:	0a02aa4118840a9e                  	{ s16i	a9, a10, 14; addi	a10, a10, 16 }

16f21c28 <lsrc_process_frame+0x4c8>:
16f21c28:	1a21e2                                    	l32i	a14, a1, 104
16f21c2b:	0b0c                                    	movi.n	a11, 0
16f21c2d:	0504214110800ede                  	{ s32i	a13, a14, 24; movi	a4, 1 }
16f21c35:	020401040880257e                  	{ beq.w15	a5, a7, 16f2203e <lsrc_process_frame+0x8de>; movi	a2, 1 }
16f21c3d:	1721a2                                    	l32i	a10, a1, 92
16f21c40:	13c0e5                                    	call8	16f35850 <__mulsi3>
16f21c43:	0a2192                                    	l32i	a9, a1, 40
16f21c46:	340694460cea2a9e                  	{ addx2	a9, a10, a9; or	a11, a4, a4 }
16f21c4e:	3b03a1411885019e                  	{ s32i	a9, a1, 28; l32i	a10, a1, 92 }
16f21c56:	0020f0                                    	nop
16f21c59:	13bf65                                    	call8	16f35850 <__mulsi3>
16f21c5c:	0d21b2                                    	l32i	a11, a1, 52
16f21c5f:	006132                                    	s32i	a3, a1, 0
16f21c62:	3b06ea200836b3ce                  	{ blti.w15	a3, 1, 16f21e3c <lsrc_process_frame+0x6dc>; addx2	a11, a10, a11 }
16f21c6a:	1a2142                                    	l32i	a4, a1, 104
16f21c6d:	5448                                    	l32i.n	a4, a4, 20
16f21c6f:	230740860c05b47e                  	{ bge.w15	a4, a7, 16f21d2a <lsrc_process_frame+0x5ca>; nop }
16f21c77:	1a2182                                    	l32i	a8, a1, 104
16f21c7a:	40c882                                    	addi	a8, a8, 64
16f21c7d:	220720c104c5388e                  	{ ae_l32.i	aed4, a8, -32; nop }
16f21c85:	230740c010e514ee                  	{ ae_movda32	aed2, a4; nop }
16f21c8d:	1a8355133482b13e                  	{ nop; nop; ae_mul32.ll	aed2, aed4, aed2 }
16f21c95:	2903814010e1d6ae                  	{ ae_movad32.l	a10, aed2; l32i	a9, a1, 24 }
16f21c9d:	2d0400420ce059ae                  	{ sub	a9, a9, a10; movi	a13, 32 }

16f21ca5 <lsrc_process_frame+0x545>:
16f21ca5:	300709451c83019e                  	{ l32i	a9, a1, 92; ae_movda32	aed3, a9 }
16f21cad:	1e0402411c80018e                  	{ l32i	a8, a1, 28; movi	a14, 18 }
16f21cb5:	0b06db4010eb1aee                  	{ ae_movda32	aed2, a10; or	a12, a11, a11 }
16f21cbd:	2b03c14500a6494e                  	{ loopgtz	a9, 16f21d15 <lsrc_process_frame+0x5b5>; l32i	a10, a1, 104 }
16f21cc5:	0a028a400091189e                  	{ l16si	a9, a8, 0; addi	a11, a10, 68 }
16f21ccd:	19055bc000e109ee                  	{ ae_movda32	aed0, a9; ae_l32.i	aed1, a11, -32 }
16f21cd5:	0e94e7c0146288d0c400930004021aaf 	{ addi	a10, a10, 4; addi	a8, a8, 2; ae_mul32.ll	aed0, aed0, aed2; nop }
16f21ce5:	1c8347033423b13e                  	{ nop; nop; ae_mula32.ll	aed0, aed1, aed3 }
16f21ced:	0ead257b09040cd0c58081390c010d0f 	{ ae_sraa64	aed0, aed0, a13; nop; nop; nop }
16f21cfd:	220700c100a51e0e                  	{ ae_slaa32s	aed0, aed0, a14; nop }
16f21d05:	0100b0c318e0647e                  	{ nop; ae_sel16i	aed0, aed0, aed0, 7 }
16f21d0d:	230760c000c511ce                  	{ ae_s16.0.ip	aed0, a12, 2; nop }

16f21d15 <lsrc_process_frame+0x5b5>:
16f21d15:	1a21a2                                    	l32i	a10, a1, 104
16f21d18:	445a                                    	add.n	a4, a4, a5
16f21d1a:	1302a24108800a4e                  	{ s32i	a4, a10, 20; addi	a2, a2, 1 }
16f21d22:	3d06bc1c1beae47e                  	{ blt.w15	a4, a7, 16f21c85 <lsrc_process_frame+0x525>; or	a11, a12, a12 }

16f21d2a <lsrc_process_frame+0x5ca>:
16f21d2a:	02038146148011ce                  	{ l32i	a12, a1, 104; l32i	a3, a1, 0 }
16f21d32:	c04470                                    	sub	a4, a4, a7
16f21d35:	0020f0                                    	nop
16f21d38:	3302a3c1089f1c4e                  	{ s32i	a4, a12, 20; addi	a3, a3, -1 }
16f21d40:	220760a00c05d3ce                  	{ blti.w15	a3, 1, 16f21e3c <lsrc_process_frame+0x6dc>; nop }
16f21d48:	172182                                    	l32i	a8, a1, 92
16f21d4b:	f03d                                    	nop.n
16f21d4d:	0020f0                                    	nop
16f21d50:	1188f0                                    	slli	a8, a8, 1
16f21d53:	5189                                    	s32i.n	a8, a1, 20
16f21d55:	230760860805147e                  	{ bge.w15	a4, a7, 16f21e1c <lsrc_process_frame+0x6bc>; nop }
16f21d5d:	1a2182                                    	l32i	a8, a1, 104
16f21d60:	1e0381411c8101fe                  	{ l32i	a15, a1, 28; l32i	a14, a1, 20 }
16f21d68:	1c044240108010ce                  	{ movi	a12, 32; movi	a13, 18 }
16f21d70:	2e06ee400473588e                  	{ addi	a8, a8, 64; add	a14, a14, a15 }

16f21d78 <lsrc_process_frame+0x618>:
16f21d78:	180538c600e4eeee                  	{ or	a8, a14, a14; ae_l32.i	aed4, a8, -32 }

16f21d80 <lsrc_process_frame+0x620>:
16f21d80:	230740c018e514ee                  	{ ae_movda32	aed3, a4; nop }
16f21d88:	1a83551b3483b13e                  	{ nop; nop; ae_mul32.ll	aed3, aed4, aed3 }
16f21d90:	2903814018e1d6ae                  	{ ae_movad32.l	a10, aed3; l32i	a9, a1, 24 }
16f21d98:	c099a0                                    	sub	a9, a9, a10

16f21d9b <lsrc_process_frame+0x63b>:
16f21d9b:	300709451c83019e                  	{ l32i	a9, a1, 92; ae_movda32	aed3, a9 }
16f21da3:	221b                                    	addi.n	a2, a2, 1
16f21da5:	0506c44010f11aee                  	{ ae_movda32	aed2, a10; add	a4, a4, a5 }
16f21dad:	3b03c14500a1494e                  	{ loopgtz	a9, 16f21e05 <lsrc_process_frame+0x6a5>; l32i	a10, a1, 28 }
16f21db5:	280288400080089e                  	{ l16si	a9, a8, 0; addi	a8, a8, 2 }
16f21dbd:	09034a4000e019ee                  	{ ae_movda32	aed0, a9; l16si	a9, a10, 0 }
16f21dc5:	0e94c7c011e3aad0c48093090002098f 	{ ae_movda32	aed0, a9; addi	a10, a10, 2; ae_mul32.ll	aed1, aed0, aed2; nop }
16f21dd5:	1c83470b3403b13e                  	{ nop; nop; ae_mula32.ll	aed1, aed0, aed3 }
16f21ddd:	0ead257b09040cd0c58081390c010c1f 	{ ae_sraa64	aed0, aed1, a12; nop; nop; nop }
16f21ded:	220700c100a51d0e                  	{ ae_slaa32s	aed0, aed0, a13; nop }
16f21df5:	0100b0c318e0647e                  	{ nop; ae_sel16i	aed0, aed0, aed0, 7 }
16f21dfd:	230760c000c511be                  	{ ae_s16.0.ip	aed0, a11, 2; nop }

16f21e05 <lsrc_process_frame+0x6a5>:
16f21e05:	1a21a2                                    	l32i	a10, a1, 104
16f21e08:	0c2c                                    	movi.n	a12, 32
16f21e0a:	f03d                                    	nop.n
16f21e0c:	1d04224108801a4e                  	{ s32i	a4, a10, 20; movi	a13, 18 }
16f21e14:	0e06be181fea447e                  	{ blt.w15	a4, a7, 16f21d80 <lsrc_process_frame+0x620>; or	a8, a14, a14 }

16f21e1c <lsrc_process_frame+0x6bc>:
16f21e1c:	51e8                                    	l32i.n	a14, a1, 20
16f21e1e:	3c038146148111ce                  	{ l32i	a12, a1, 104; l32i	a13, a1, 28 }
16f21e26:	c04470                                    	sub	a4, a4, a7
16f21e29:	1f06ad4108930c4e                  	{ s32i	a4, a12, 20; add	a13, a13, a14 }
16f21e31:	3302a3c1189f11de                  	{ s32i	a13, a1, 28; addi	a3, a3, -1 }
16f21e39:	f18356                                    	bnez	a3, 16f21d55 <lsrc_process_frame+0x5f5>
16f21e3c:	1721f2                                    	l32i	a15, a1, 92
16f21e3f:	7a1fa6                                    	blti	a15, 1, 16f21ebd <lsrc_process_frame+0x75d>
16f21e42:	1a2182                                    	l32i	a8, a1, 104
16f21e45:	3a03e142086120fe                  	{ extui	a9, a15, 0, 3; l32i	a10, a1, 28 }
16f21e4d:	3f06df4500aa194e                  	{ loopgtz	a9, 16f21e65 <lsrc_process_frame+0x705>; or	a11, a15, a15 }
16f21e55:	0802884000810ace                  	{ l16si	a12, a10, 0; addi	a8, a8, 4 }
16f21e5d:	2b02aa42008008ce                  	{ s32i	a12, a8, 32; addi	a10, a10, 2 }

16f21e65 <lsrc_process_frame+0x705>:
16f21e65:	1906b84208ab23be                  	{ srai	a9, a11, 3; or	a13, a8, a8 }
16f21e6d:	0b06da4300aa494e                  	{ loopgtz	a9, 16f21ebd <lsrc_process_frame+0x75d>; or	a8, a10, a10 }
16f21e75:	0c028d400088189e                  	{ l16si	a9, a8, 0; addi	a13, a13, 32 }

16f21e7d <lsrc_process_frame+0x71d>:
16f21e7d:	1903284008801d9e                  	{ s32i	a9, a13, 4; l16si	a9, a8, 2 }
16f21e85:	2903284010801d9e                  	{ s32i	a9, a13, 8; l16si	a9, a8, 4 }
16f21e8d:	3903284018801d9e                  	{ s32i	a9, a13, 12; l16si	a9, a8, 6 }
16f21e95:	0903284100811d9e                  	{ s32i	a9, a13, 16; l16si	a9, a8, 8 }
16f21e9d:	1903284108811d9e                  	{ s32i	a9, a13, 20; l16si	a9, a8, 10 }
16f21ea5:	2903284110811d9e                  	{ s32i	a9, a13, 24; l16si	a9, a8, 12 }
16f21ead:	3903284118811d9e                  	{ s32i	a9, a13, 28; l16si	a9, a8, 14 }
16f21eb5:	0902a84200840d9e                  	{ s32i	a9, a13, 32; addi	a8, a8, 16 }

16f21ebd <lsrc_process_frame+0x75d>:
16f21ebd:	f01d                                    	retw.n

16f21ebf <lsrc_process_frame+0x75f>:
	...

16f21ec0 <lsrc_process_frame+0x760>:
16f21ec0:	0dcd                                    	mov.n	a12, a13
16f21ec2:	2403c240008010ee                  	{ movi	a14, 0; l32i	a5, a2, 8 }
16f21eca:	0703a243108111ee                  	{ s32i	a14, a1, 56; l32i	a7, a2, 16 }
16f21ed2:	030400461460ff2e                  	{ j	16f21905 <lsrc_process_frame+0x1a5>; movi	a3, 0 }

16f21eda <lsrc_process_frame+0x77a>:
16f21eda:	1721a2                                    	l32i	a10, a1, 92
16f21edd:	1a2182                                    	l32i	a8, a1, 104
16f21ee0:	41e9                                    	s32i.n	a14, a1, 16
16f21ee2:	1f06aa40188601ce                  	{ s32i	a12, a1, 12; slli	a9, a10, 2 }
16f21eea:	0906aa43189a019e                  	{ s32i	a9, a1, 60; addx4	a8, a10, a8 }
16f21ef2:	3306b342188a118e                  	{ s32i	a8, a1, 44; or	a11, a3, a3 }
16f21efa:	0020f0                                    	nop
16f21efd:	139525                                    	call8	16f35850 <__mulsi3>
16f21f00:	3b03a14610a01aee                  	{ slli	a10, a10, 2; l32i	a11, a1, 12 }

16f21f08 <lsrc_process_frame+0x7a8>:
16f21f08:	3b03a146008501ae                  	{ s32i	a10, a1, 96; l32i	a10, a1, 92 }
16f21f10:	0020f0                                    	nop
16f21f13:	1393e5                                    	call8	16f35850 <__mulsi3>
16f21f16:	a1b8                                    	l32i.n	a11, a1, 40
16f21f18:	a0bab0                                    	addx4	a11, a10, a11
16f21f1b:	91b9                                    	s32i.n	a11, a1, 36

16f21f1d <lsrc_process_frame+0x7bd>:
16f21f1d:	1721c2                                    	l32i	a12, a1, 92
16f21f20:	220760a00805bcce                  	{ blti.w15	a12, 1, 16f21ff8 <lsrc_process_frame+0x898>; nop }
16f21f28:	180381460483013e                  	{ l32i	a3, a1, 96; l32i	a8, a1, 52 }
16f21f30:	9158                                    	l32i.n	a5, a1, 36
16f21f32:	260381401ce6338e                  	{ add	a3, a3, a8; l32i	a7, a1, 104 }
16f21f3a:	1a2162                                    	l32i	a6, a1, 104
16f21f3d:	140386420c81079e                  	{ l32i	a9, a7, 36; l32i	a4, a6, 20 }

16f21f45 <lsrc_process_frame+0x7e5>:
16f21f45:	06038641048206be                  	{ l32i	a11, a6, 16; l32i	a6, a6, 32 }
16f21f4d:	0b03a5440880019e                  	{ s32i	a9, a1, 68; l32i	a10, a5, 0 }
16f21f55:	1061a2                                    	s32i	a10, a1, 64
16f21f58:	3406bb4610fae66e                  	{ or	a10, a6, a6; sub	a11, a11, a4 }
16f21f60:	0020f0                                    	nop
16f21f63:	138ee5                                    	call8	16f35850 <__mulsi3>
16f21f66:	0a069a440c8b01ae                  	{ l32i	a10, a1, 68; or	a12, a10, a10 }
16f21f6e:	3b06af4708ae2fce                  	{ srai	a13, a12, 31; srai	a11, a10, 31 }
16f21f76:	0020f0                                    	nop
16f21f79:	0a5265                                    	call8	16f2c4a0 <__muldi3>
16f21f7c:	102182                                    	l32i	a8, a1, 64
16f21f7f:	2506b447088a01be                  	{ s32i	a11, a1, 116; or	a10, a4, a4 }
16f21f87:	0906af44108e018e                  	{ s32i	a8, a1, 72; srai	a8, a8, 31 }
16f21f8f:	3706b644188a018e                  	{ s32i	a8, a1, 76; or	a11, a6, a6 }
16f21f97:	0020f0                                    	nop
16f21f9a:	138b65                                    	call8	16f35850 <__mulsi3>
16f21f9d:	1321b2                                    	l32i	a11, a1, 76
16f21fa0:	0a069a470c8b014e                  	{ l32i	a4, a1, 116; or	a12, a10, a10 }
16f21fa8:	2b03a14708a42fae                  	{ srai	a13, a10, 31; l32i	a10, a1, 72 }
16f21fb0:	0020f0                                    	nop
16f21fb3:	0a4ee5                                    	call8	16f2c4a0 <__muldi3>
16f21fb6:	b4ba                                    	add.n	a11, a4, a11
16f21fb8:	41beb0                                    	srli	a11, a11, 14
16f21fbb:	0b06af4308af3fbe                  	{ srai	a13, a11, 15; srai	a12, a11, 31 }
16f21fc3:	1d069c4304fb7c2e                  	{ xor	a12, a12, a2; sub	a13, a12, a13 }
16f21fcb:	3b03a14618e2ccde                  	{ movnez	a11, a12, a13; l32i	a10, a1, 44 }
16f21fd3:	0502a54618a11b0e                  	{ slli	a11, a11, 16; addi	a5, a5, 4 }
16f21fdb:	0702a740008113be                  	{ s32i	a11, a3, 0; addi	a7, a7, 4 }
16f21fe3:	0302a31e1be197ae                  	{ bne.w15	a7, a10, 16f21f3a <lsrc_process_frame+0x7da>; addi	a3, a3, 4 }
16f21feb:	1a2142                                    	l32i	a4, a1, 104
16f21fee:	2458                                    	l32i.n	a5, a4, 8
16f21ff0:	140384410481047e                  	{ l32i	a7, a4, 16; l32i	a4, a4, 20 }

16f21ff8 <lsrc_process_frame+0x898>:
16f21ff8:	f1a8                                    	l32i.n	a10, a1, 60
16f21ffa:	280381460486019e                  	{ l32i	a9, a1, 96; l32i	a8, a1, 104 }
16f22002:	e168                                    	l32i.n	a6, a1, 56
16f22004:	445a                                    	add.n	a4, a4, a5
16f22006:	1b06a9410892084e                  	{ s32i	a4, a8, 20; add	a9, a9, a10 }
16f2200e:	1302a6460080119e                  	{ s32i	a9, a1, 96; addi	a3, a6, 1 }
16f22016:	e139                                    	s32i.n	a3, a1, 56
16f22018:	2207009c1be5147e                  	{ blt.w15	a4, a7, 16f21f1d <lsrc_process_frame+0x7bd>; nop }
16f22020:	31c8                                    	l32i.n	a12, a1, 12
16f22022:	0d0381460c61f20e                  	{ j	16f21928 <lsrc_process_frame+0x1c8>; l32i	a13, a1, 16 }

16f2202a <lsrc_process_frame+0x8ca>:
	...

16f2202c <lsrc_process_frame+0x8cc>:
16f2202c:	0dbd                                    	mov.n	a11, a13
16f2202e:	020440400080004e                  	{ movi	a4, 0; movi	a2, 0 }
16f22036:	2307009e1b85157e                  	{ bne.w15	a5, a7, 16f21c3d <lsrc_process_frame+0x4dd>; nop }
16f2203e:	006132                                    	s32i	a3, a1, 0
16f22041:	220720b80fc5d3ce                  	{ blti.w15	a3, 1, 16f21ebd <lsrc_process_frame+0x75d>; nop }
16f22049:	1721a2                                    	l32i	a10, a1, 92
16f2204c:	138025                                    	call8	16f35850 <__mulsi3>
16f2204f:	1721b2                                    	l32i	a11, a1, 92
16f22052:	1a06ba4510e9e44e                  	{ or	a6, a4, a4; or	a5, a10, a10 }
16f2205a:	1f06ab4410a71afe                  	{ slli	a2, a10, 1; slli	a13, a11, 1 }
16f22062:	2506b441088a01de                  	{ s32i	a13, a1, 20; or	a10, a4, a4 }
16f2206a:	0020f0                                    	nop
16f2206d:	137e25                                    	call8	16f35850 <__mulsi3>
16f22070:	1721d2                                    	l32i	a13, a1, 92
16f22073:	0a21e2                                    	l32i	a14, a1, 40
16f22076:	80d5d0                                    	add	a13, a5, a13
16f22079:	1f06ad4700b70afe                  	{ slli	a12, a10, 1; addx2	a13, a13, a14 }
16f22081:	a188                                    	l32i.n	a8, a1, 40
16f22083:	380381430c8511ae                  	{ l32i	a10, a1, 52; l32i	a9, a1, 92 }
16f2208b:	828a                                    	add.n	a8, a2, a8
16f2208d:	2b06cc4500b2094e                  	{ loopgtz	a9, 16f220a5 <lsrc_process_frame+0x945>; add	a10, a12, a10 }

16f22095 <lsrc_process_frame+0x935>:
16f22095:	280288400080089e                  	{ l16si	a9, a8, 0; addi	a8, a8, 2 }
16f2209d:	2a02aa4000800a9e                  	{ s16i	a9, a10, 0; addi	a10, a10, 2 }

16f220a5 <lsrc_process_frame+0x945>:
16f220a5:	5198                                    	l32i.n	a9, a1, 20
16f220a7:	330b                                    	addi.n	a3, a3, -1
16f220a9:	2806824304f03c9e                  	{ add	a12, a12, a9; add	a2, a2, a9 }
16f220b1:	1806ed3903f373ee                  	{ bnez.w15	a3, 16f22081 <lsrc_process_frame+0x921>; add	a13, a13, a9 }
16f220b9:	0128                                    	l32i.n	a2, a1, 0
16f220bb:	226a                                    	add.n	a2, a2, a6
16f220bd:	f01d                                    	retw.n

16f220bf <lsrc_process_frame+0x95f>:
16f220bf:	00000000                                ....

16f220c3 <lsrc_process_frame+0x963>:
16f220c3:	220740a008057fce                  	{ blti.w15	a15, 1, 16f22153 <lsrc_process_frame+0x9f3>; nop }
16f220cb:	028d                                    	mov.n	a8, a2
16f220cd:	2e03e142086220fe                  	{ extui	a9, a15, 0, 3; l32i	a14, a1, 40 }
16f220d5:	0020f0                                    	nop
16f220d8:	2f06df4500aa194e                  	{ loopgtz	a9, 16f220f0 <lsrc_process_frame+0x990>; or	a10, a15, a15 }
16f220e0:	0802884000810ebe                  	{ l16si	a11, a14, 0; addi	a8, a8, 4 }
16f220e8:	2f02ae42008008be                  	{ s32i	a11, a8, 32; addi	a14, a14, 2 }

16f220f0 <lsrc_process_frame+0x990>:
16f220f0:	2193a0                                    	srai	a9, a10, 3
16f220f3:	0020f0                                    	nop
16f220f6:	f03d                                    	nop.n
16f220f8:	2906d84300aa494e                  	{ loopgtz	a9, 16f22148 <lsrc_process_frame+0x9e8>; or	a10, a8, a8 }
16f22100:	0a028a4000880e9e                  	{ l16si	a9, a14, 0; addi	a10, a10, 32 }

16f22108 <lsrc_process_frame+0x9a8>:
16f22108:	19032e4008801a9e                  	{ s32i	a9, a10, 4; l16si	a9, a14, 2 }
16f22110:	29032e4010801a9e                  	{ s32i	a9, a10, 8; l16si	a9, a14, 4 }
16f22118:	39032e4018801a9e                  	{ s32i	a9, a10, 12; l16si	a9, a14, 6 }
16f22120:	09032e4100811a9e                  	{ s32i	a9, a10, 16; l16si	a9, a14, 8 }
16f22128:	19032e4108811a9e                  	{ s32i	a9, a10, 20; l16si	a9, a14, 10 }
16f22130:	29032e4110811a9e                  	{ s32i	a9, a10, 24; l16si	a9, a14, 12 }
16f22138:	39032e4118811a9e                  	{ s32i	a9, a10, 28; l16si	a9, a14, 14 }
16f22140:	0f02ae4200840a9e                  	{ s32i	a9, a10, 32; addi	a14, a14, 16 }

16f22148 <lsrc_process_frame+0x9e8>:
16f22148:	1a2172                                    	l32i	a7, a1, 104

16f2214b <lsrc_process_frame+0x9eb>:
16f2214b:	060387401481175e                  	{ l32i	a5, a7, 8; l32i	a7, a7, 16 }

16f22153 <lsrc_process_frame+0x9f3>:
16f22153:	1a2182                                    	l32i	a8, a1, 104
16f22156:	3202ccc0009f11be                  	{ movi	a11, 1; addi	a3, a12, -1 }
16f2215e:	05042041108008de                  	{ s32i	a13, a8, 24; movi	a4, 0 }
16f22166:	030400471460ecce                  	{ j	16f22036 <lsrc_process_frame+0x8d6>; movi	a2, 0 }

16f2216e <lsrc_process_frame+0xa0e>:
16f2216e:	0dbd                                    	mov.n	a11, a13
16f22170:	040400401480025e                  	{ l32i	a5, a2, 8; movi	a4, 0 }
16f22178:	030400471460eabe                  	{ j	16f22036 <lsrc_process_frame+0x8d6>; movi	a2, 0 }

16f22180 <dsp_enable_lock>:
16f22180:	004136                                    	entry	a1, 32
16f22183:	006f20                                    	rsil	a2, 15
16f22186:	f01d                                    	retw.n

16f22188 <dsp_disable_lock>:
16f22188:	004136                                    	entry	a1, 32
16f2218b:	13e620                                    	wsr.ps	a2
16f2218e:	002010                                    	rsync
16f22191:	f01d                                    	retw.n

16f22193 <dsp_disable_lock+0xb>:
	...

16f22194 <dsp_timer_mod>:
16f22194:	004136                                    	entry	a1, 32

16f22197 <dsp_timer_mod+0x3>:
16f22197:	02ad                                    	mov.n	a10, a2
16f22199:	1405e5                                    	call8	16f361f8 <xthal_get_ccompare>
16f2219c:	204aa0                                    	or	a4, a10, a10
16f2219f:	220692421cea243e                  	{ add	a11, a4, a3; or	a10, a2, a2 }
16f221a7:	1402e5                                    	call8	16f361d4 <xthal_set_ccompare>
16f221aa:	03ea80                                    	rsr.ccount	a8
16f221ad:	c08840                                    	sub	a8, a8, a4
16f221b0:	e33387                                    	bltu	a3, a8, 16f22197 <dsp_timer_mod+0x3>
16f221b3:	f01d                                    	retw.n

16f221b5 <dsp_timer_mod+0x21>:
16f221b5:	00000000 36000000                                ......

16f221bb <dsp_timer_mod+0x27>:
	...

16f221bc <dsp_timer_disable>:
16f221bc:	004136                                    	entry	a1, 32
16f221bf:	0442f6                                    	bgeui	a2, 4, 16f221c7 <dsp_timer_disable+0xb>
16f221c2:	328c                                    	beqz.n	a2, 16f221c9 <dsp_timer_disable+0xd>
16f221c4:	0b1226                                    	beqi	a2, 1, 16f221d3 <dsp_timer_disable+0x17>

16f221c7 <dsp_timer_disable+0xb>:
16f221c7:	f01d                                    	retw.n

16f221c9 <dsp_timer_disable+0xd>:
16f221c9:	8a0c                                    	movi.n	a10, 8
16f221cb:	11d765                                    	call8	16f33f40 <xtos_interrupt_disable>
16f221ce:	f01d                                    	retw.n

16f221d0 <dsp_timer_disable+0x14>:
16f221d0:	000000                                        ...

16f221d3 <dsp_timer_disable+0x17>:
16f221d3:	aa0c                                    	movi.n	a10, 10
16f221d5:	11d6a5                                    	call8	16f33f40 <xtos_interrupt_disable>
16f221d8:	f01d                                    	retw.n

16f221da <dsp_timer_disable+0x1e>:
16f221da:	000000                                        ...

16f221dd <dsp_timer_disable+0x21>:
16f221dd:	000000                                        ...

16f221e0 <dsp_timer_enable>:
16f221e0:	004136                                    	entry	a1, 32
16f221e3:	0452f6                                    	bgeui	a2, 5, 16f221eb <dsp_timer_enable+0xb>
16f221e6:	328c                                    	beqz.n	a2, 16f221ed <dsp_timer_enable+0xd>
16f221e8:	0c1226                                    	beqi	a2, 1, 16f221f8 <dsp_timer_enable+0x18>

16f221eb <dsp_timer_enable+0xb>:
16f221eb:	f01d                                    	retw.n

16f221ed <dsp_timer_enable+0xd>:
16f221ed:	8a0c                                    	movi.n	a10, 8
16f221ef:	11d125                                    	call8	16f33f00 <xtos_interrupt_enable>
16f221f2:	f01d                                    	retw.n

16f221f4 <dsp_timer_enable+0x14>:
16f221f4:	000000                                        ...

16f221f7 <dsp_timer_enable+0x17>:
	...

16f221f8 <dsp_timer_enable+0x18>:
16f221f8:	aa0c                                    	movi.n	a10, 10
16f221fa:	11d065                                    	call8	16f33f00 <xtos_interrupt_enable>
16f221fd:	f01d                                    	retw.n

16f221ff <dsp_timer_enable+0x1f>:
16f221ff:	000000                                        ...

16f22202 <dsp_timer_enable+0x22>:
	...

16f22204 <dsp_timer_init>:
16f22204:	006136                                    	entry	a1, 48
16f22207:	0542f6                                    	bgeui	a2, 4, 16f22210 <dsp_timer_init+0xc>
16f2220a:	004216                                    	beqz	a2, 16f22212 <dsp_timer_init+0xe>
16f2220d:	2f1226                                    	beqi	a2, 1, 16f22240 <dsp_timer_init+0x3c>

16f22210 <dsp_timer_init+0xc>:
16f22210:	f01d                                    	retw.n

16f22212 <dsp_timer_init+0xe>:
16f22212:	3406d440008a08ae                  	{ movi	a10, 8; or	a11, a4, a4 }
16f2221a:	0c04204708e0e11e                  	{ or	a13, a1, a1; movi	a12, 0 }
16f22222:	11d6e5                                    	call8	16f33f90 <xtos_set_interrupt_handler>
16f22225:	03eab0                                    	rsr.ccount	a11
16f22228:	3206cb40009210ae                  	{ movi	a10, 0; add	a11, a11, a3 }
16f22230:	13fa25                                    	call8	16f361d4 <xthal_set_ccompare>
16f22233:	f01d                                    	retw.n

16f22235 <dsp_timer_init+0x31>:
16f22235:	00000000 00000000                                ......

16f2223b <dsp_timer_init+0x37>:
16f2223b:	00000000 8a0aae00                                .....

16f22240 <dsp_timer_init+0x3c>:
16f22240:	3406d440008a0aae                  	{ movi	a10, 10; or	a11, a4, a4 }
16f22248:	0c04204708e0e11e                  	{ or	a13, a1, a1; movi	a12, 0 }
16f22250:	11d3e5                                    	call8	16f33f90 <xtos_set_interrupt_handler>
16f22253:	03eab0                                    	rsr.ccount	a11
16f22256:	3206cb40009211ae                  	{ movi	a10, 1; add	a11, a11, a3 }
16f2225e:	13f765                                    	call8	16f361d4 <xthal_set_ccompare>
16f22261:	f01d                                    	retw.n

16f22263 <dsp_timer_init+0x5f>:
16f22263:	00000000 00000000                                ......

16f22269 <dsp_timer_init+0x65>:
16f22269:	000000                                        ...

16f2226c <dsp_timer_deinit>:
16f2226c:	004136                                    	entry	a1, 32
16f2226f:	f01d                                    	retw.n

16f22271 <dsp_timer_deinit+0x5>:
16f22271:	000000                                        ...

16f22274 <dsp_timer0_func>:
16f22274:	004136                                    	entry	a1, 32
16f22277:	fa5c21                                    	l32r	a2, 16f20be8 (16f37478 <g_hw_timer_rm_130>)
16f2227a:	32a8                                    	l32i.n	a10, a2, 12
16f2227c:	1a8c                                    	beqz.n	a10, 16f22281 <dsp_timer0_func+0xd>
16f2227e:	000ae0                                    	callx8	a10

16f22281 <dsp_timer0_func+0xd>:
16f22281:	1a038240048012ae                  	{ l32i	a10, a2, 0; l32i	a11, a2, 4 }
16f22289:	fff0a5                                    	call8	16f22194 <dsp_timer_mod>
16f2228c:	f01d                                    	retw.n

16f2228e <dsp_timer0_func+0x1a>:
	...

16f22290 <dsp_timer1_func>:
16f22290:	004136                                    	entry	a1, 32
16f22293:	fa5521                                    	l32r	a2, 16f20be8 (16f37478 <g_hw_timer_rm_130>)
16f22296:	0020f0                                    	nop
16f22299:	82a8                                    	l32i.n	a10, a2, 32
16f2229b:	1a8c                                    	beqz.n	a10, 16f222a0 <dsp_timer1_func+0x10>
16f2229d:	000ae0                                    	callx8	a10

16f222a0 <dsp_timer1_func+0x10>:
16f222a0:	2a0382410c8112ae                  	{ l32i	a10, a2, 20; l32i	a11, a2, 24 }
16f222a8:	ffeea5                                    	call8	16f22194 <dsp_timer_mod>
16f222ab:	f01d                                    	retw.n

16f222ad <dsp_timer1_func+0x1d>:
16f222ad:	000000                                        ...

16f222b0 <timer_reg_isr_func>:
16f222b0:	004136                                    	entry	a1, 32
16f222b3:	030682210019222e                  	{ bltui.w15	a2, 4, 16f222bd <timer_reg_isr_func+0xd>; addx4	a4, a2, a2 }
16f222bb:	f01d                                    	retw.n

16f222bd <timer_reg_isr_func+0xd>:
16f222bd:	fa4a51                                    	l32r	a5, 16f20be8 (16f37478 <g_hw_timer_rm_130>)
16f222c0:	a04450                                    	addx4	a4, a4, a5
16f222c3:	3439                                    	s32i.n	a3, a4, 12
16f222c5:	f01d                                    	retw.n

16f222c7 <timer_reg_isr_func+0x17>:
	...

16f222c8 <timer_del_isr_func>:
16f222c8:	004136                                    	entry	a1, 32
16f222cb:	030682210019222e                  	{ bltui.w15	a2, 4, 16f222d5 <timer_del_isr_func+0xd>; addx4	a4, a2, a2 }
16f222d3:	f01d                                    	retw.n

16f222d5 <timer_del_isr_func+0xd>:
16f222d5:	fa4481                                    	l32r	a8, 16f20be8 (16f37478 <g_hw_timer_rm_130>)
16f222d8:	0304004104e0348e                  	{ addx4	a4, a4, a8; movi	a3, 0 }
16f222e0:	3439                                    	s32i.n	a3, a4, 12
16f222e2:	f01d                                    	retw.n

16f222e4 <timer_set_enable>:
16f222e4:	004136                                    	entry	a1, 32
16f222e7:	02ad                                    	mov.n	a10, a2
16f222e9:	ffef65                                    	call8	16f221e0 <dsp_timer_enable>
16f222ec:	f01d                                    	retw.n

16f222ee <timer_set_enable+0xa>:
	...

16f222f0 <timer_set_disable>:
16f222f0:	004136                                    	entry	a1, 32
16f222f3:	02ad                                    	mov.n	a10, a2
16f222f5:	ffec65                                    	call8	16f221bc <dsp_timer_disable>
16f222f8:	f01d                                    	retw.n

16f222fa <timer_set_disable+0xa>:
	...

16f222fc <timer_init>:
16f222fc:	004136                                    	entry	a1, 32
16f222ff:	13068225041a428e                  	{ bgeui.w15	a2, 4, 16f2232e <timer_init+0x32>; addx4	a9, a2, a2 }
16f22307:	fa38a1                                    	l32r	a10, 16f20be8 (16f37478 <g_hw_timer_rm_130>)
16f2230a:	a099a0                                    	addx4	a9, a9, a10
16f2230d:	0929                                    	s32i.n	a2, a9, 0
16f2230f:	090421400880093e                  	{ s32i	a3, a9, 4; movi	a8, 1 }
16f22317:	4989                                    	s32i.n	a8, a9, 16
16f22319:	b29c                                    	beqz.n	a2, 16f22338 <timer_init+0x3c>
16f2231b:	2c0389240800820e                  	{ beqi.w15	a2, 1, 16f22330 <timer_init+0x34>; l32i	a12, a9, 8 }

16f22323 <timer_init+0x27>:
16f22323:	2206b24618eae33e                  	{ or	a11, a3, a3; or	a10, a2, a2 }
16f2232b:	ffeda5                                    	call8	16f22204 <dsp_timer_init>
16f2232e:	f01d                                    	retw.n

16f22330 <timer_init+0x34>:
16f22330:	fa2fc1                                    	l32r	a12, 16f20bec (16f22290 <dsp_timer1_func>)
16f22333:	29c9                                    	s32i.n	a12, a9, 8
16f22335:	fffa86                                    	j	16f22323 <timer_init+0x27>

16f22338 <timer_init+0x3c>:
16f22338:	fa2ec1                                    	l32r	a12, 16f20bf0 (16f22274 <dsp_timer0_func>)
16f2233b:	29c9                                    	s32i.n	a12, a9, 8
16f2233d:	fff886                                    	j	16f22323 <timer_init+0x27>

16f22340 <timer_deinit>:
16f22340:	004136                                    	entry	a1, 32
16f22343:	02ad                                    	mov.n	a10, a2
16f22345:	fff265                                    	call8	16f2226c <dsp_timer_deinit>
16f22348:	fa28a1                                    	l32r	a10, 16f20be8 (16f37478 <g_hw_timer_rm_130>)
16f2234b:	a09220                                    	addx4	a9, a2, a2
16f2234e:	090400420ce029ae                  	{ addx4	a9, a9, a10; movi	a8, 0 }
16f22356:	2989                                    	s32i.n	a8, a9, 8
16f22358:	f01d                                    	retw.n

16f2235a <timer_deinit+0x1a>:
16f2235a:	00000000 41360000                                ......

16f22360 <HI_ADSP_MALLOC>:
16f22360:	004136                                    	entry	a1, 32
16f22363:	20a330                                    	or	a10, a3, a3
16f22366:	0a1ea5                                    	call8	16f2c550 <malloc>
16f22369:	202aa0                                    	or	a2, a10, a10
16f2236c:	000090                                    	retw

16f2236f <HI_ADSP_MALLOC+0xf>:
	...

16f22370 <HI_ADSP_FREE>:
16f22370:	004136                                    	entry	a1, 32
16f22373:	338c                                    	beqz.n	a3, 16f2237a <HI_ADSP_FREE+0xa>
16f22375:	03ad                                    	mov.n	a10, a3
16f22377:	0a1fa5                                    	call8	16f2c570 <free>

16f2237a <HI_ADSP_FREE+0xa>:
16f2237a:	f01d                                    	retw.n

16f2237c <HI_ADSP_FREE+0xc>:
16f2237c:	000000                                        ...

16f2237f <HI_ADSP_FREE+0xf>:
	...

16f22380 <HI_ADSP_V_MALLOC>:
16f22380:	004136                                    	entry	a1, 32
16f22383:	20a330                                    	or	a10, a3, a3
16f22386:	0a1ca5                                    	call8	16f2c550 <malloc>
16f22389:	202aa0                                    	or	a2, a10, a10
16f2238c:	000090                                    	retw

16f2238f <HI_ADSP_V_MALLOC+0xf>:
	...

16f22390 <HI_ADSP_V_FREE>:
16f22390:	004136                                    	entry	a1, 32
16f22393:	338c                                    	beqz.n	a3, 16f2239a <HI_ADSP_V_FREE+0xa>
16f22395:	03ad                                    	mov.n	a10, a3
16f22397:	0a1da5                                    	call8	16f2c570 <free>

16f2239a <HI_ADSP_V_FREE+0xa>:
16f2239a:	f01d                                    	retw.n

16f2239c <HI_ADSP_V_FREE+0xc>:
16f2239c:	000000                                        ...

16f2239f <HI_ADSP_V_FREE+0xf>:
	...

16f223a0 <hi_adsp_malloc_aligned>:
16f223a0:	004136                                    	entry	a1, 32
16f223a3:	3a24b6                                    	bltui	a4, 2, 16f223e1 <hi_adsp_malloc_aligned+0x41>
16f223a6:	00a182                                    	movi	a8, 0x100
16f223a9:	343847                                    	bltu	a8, a4, 16f223e1 <hi_adsp_malloc_aligned+0x41>
16f223ac:	0a0c                                    	movi.n	a10, 0
16f223ae:	0a8076                                    	loop	a0, 16f223bc <hi_adsp_malloc_aligned+0x1c>
16f223b1:	aa1b                                    	addi.n	a10, a10, 1
16f223b3:	400a00                                    	ssr	a10
16f223b6:	919040                                    	srl	a9, a4
16f223b9:	0329b6                                    	bltui	a9, 2, 16f223c0 <hi_adsp_malloc_aligned+0x20>

16f223bc <hi_adsp_malloc_aligned+0x1c>:
16f223bc:	fffb86                                    	j	16f223ae <hi_adsp_malloc_aligned+0xe>

16f223bf <hi_adsp_malloc_aligned+0x1f>:
	...

16f223c0 <hi_adsp_malloc_aligned+0x20>:
16f223c0:	23074ac718847fbe                  	{ movi	a11, -1; ssl	a10 }
16f223c8:	a15b00                                    	sll	a5, a11
16f223cb:	30b5b0                                    	xor	a11, a5, a11
16f223ce:	0f8b47                                    	bany	a11, a4, 16f223e1 <hi_adsp_malloc_aligned+0x41>
16f223d1:	13b437                                    	bgeu	a4, a3, 16f223e8 <hi_adsp_malloc_aligned+0x48>
16f223d4:	3406b44610eae33e                  	{ or	a10, a3, a3; or	a11, a4, a4 }
16f223dc:	136425                                    	call8	16f35a20 <__umodsi3>
16f223df:	5a8c                                    	beqz.n	a10, 16f223e8 <hi_adsp_malloc_aligned+0x48>
16f223e1:	020c                                    	movi.n	a2, 0
16f223e3:	f01d                                    	retw.n

16f223e5 <hi_adsp_malloc_aligned+0x45>:
16f223e5:	000000                                        ...

16f223e8 <hi_adsp_malloc_aligned+0x48>:
16f223e8:	220692421cea234e                  	{ add	a11, a3, a4; or	a10, a2, a2 }
16f223f0:	fff6e5                                    	call8	16f22360 <HI_ADSP_MALLOC>
16f223f3:	feaa16                                    	beqz	a10, 16f223e1 <hi_adsp_malloc_aligned+0x41>
16f223f6:	2a4a                                    	add.n	a2, a10, a4
16f223f8:	102520                                    	and	a2, a5, a2
16f223fb:	0b06f2471c7be2de                  	{ addmi	a13, a2, 0xffffff00; sub	a12, a2, a10 }
16f22403:	ff4dc2                                    	s8i	a12, a13, 255
16f22406:	f01d                                    	retw.n

16f22408 <hi_adsp_free_aligned>:
16f22408:	004136                                    	entry	a1, 32
16f2240b:	f38c                                    	beqz.n	a3, 16f2241e <hi_adsp_free_aligned+0x16>
16f2240d:	ffd3b2                                    	addmi	a11, a3, 0xffffff00
16f22410:	ff0bb2                                    	l8ui	a11, a11, 255
16f22413:	230692421cea43be                  	{ sub	a11, a3, a11; or	a10, a2, a2 }
16f2241b:	fff565                                    	call8	16f22370 <HI_ADSP_FREE>

16f2241e <hi_adsp_free_aligned+0x16>:
16f2241e:	f01d                                    	retw.n

16f22420 <hi_adsp_vmalloc_aligned>:
16f22420:	004136                                    	entry	a1, 32
16f22423:	3a24b6                                    	bltui	a4, 2, 16f22461 <hi_adsp_vmalloc_aligned+0x41>
16f22426:	00a182                                    	movi	a8, 0x100
16f22429:	343847                                    	bltu	a8, a4, 16f22461 <hi_adsp_vmalloc_aligned+0x41>
16f2242c:	0a0c                                    	movi.n	a10, 0
16f2242e:	0a8076                                    	loop	a0, 16f2243c <hi_adsp_vmalloc_aligned+0x1c>
16f22431:	aa1b                                    	addi.n	a10, a10, 1
16f22433:	400a00                                    	ssr	a10
16f22436:	919040                                    	srl	a9, a4
16f22439:	0329b6                                    	bltui	a9, 2, 16f22440 <hi_adsp_vmalloc_aligned+0x20>

16f2243c <hi_adsp_vmalloc_aligned+0x1c>:
16f2243c:	fffb86                                    	j	16f2242e <hi_adsp_vmalloc_aligned+0xe>

16f2243f <hi_adsp_vmalloc_aligned+0x1f>:
	...

16f22440 <hi_adsp_vmalloc_aligned+0x20>:
16f22440:	23074ac718847fbe                  	{ movi	a11, -1; ssl	a10 }
16f22448:	a15b00                                    	sll	a5, a11
16f2244b:	30b5b0                                    	xor	a11, a5, a11
16f2244e:	0f8b47                                    	bany	a11, a4, 16f22461 <hi_adsp_vmalloc_aligned+0x41>
16f22451:	13b437                                    	bgeu	a4, a3, 16f22468 <hi_adsp_vmalloc_aligned+0x48>
16f22454:	3406b44610eae33e                  	{ or	a10, a3, a3; or	a11, a4, a4 }
16f2245c:	135c25                                    	call8	16f35a20 <__umodsi3>
16f2245f:	5a8c                                    	beqz.n	a10, 16f22468 <hi_adsp_vmalloc_aligned+0x48>
16f22461:	020c                                    	movi.n	a2, 0
16f22463:	f01d                                    	retw.n

16f22465 <hi_adsp_vmalloc_aligned+0x45>:
16f22465:	000000                                        ...

16f22468 <hi_adsp_vmalloc_aligned+0x48>:
16f22468:	220692421cea234e                  	{ add	a11, a3, a4; or	a10, a2, a2 }
16f22470:	fff0e5                                    	call8	16f22380 <HI_ADSP_V_MALLOC>
16f22473:	feaa16                                    	beqz	a10, 16f22461 <hi_adsp_vmalloc_aligned+0x41>
16f22476:	2a4a                                    	add.n	a2, a10, a4
16f22478:	102520                                    	and	a2, a5, a2
16f2247b:	0b06f2471c7be2de                  	{ addmi	a13, a2, 0xffffff00; sub	a12, a2, a10 }
16f22483:	ff4dc2                                    	s8i	a12, a13, 255
16f22486:	f01d                                    	retw.n

16f22488 <hi_adsp_vfree_aligned>:
16f22488:	004136                                    	entry	a1, 32
16f2248b:	f38c                                    	beqz.n	a3, 16f2249e <hi_adsp_vfree_aligned+0x16>
16f2248d:	ffd3b2                                    	addmi	a11, a3, 0xffffff00
16f22490:	ff0bb2                                    	l8ui	a11, a11, 255
16f22493:	230692421cea43be                  	{ sub	a11, a3, a11; or	a10, a2, a2 }
16f2249b:	ffef65                                    	call8	16f22390 <HI_ADSP_V_FREE>

16f2249e <hi_adsp_vfree_aligned+0x16>:
16f2249e:	f01d                                    	retw.n

16f224a0 <circ_buf_flush>:
16f224a0:	004136                                    	entry	a1, 32
16f224a3:	140382400480023e                  	{ l32i	a3, a2, 0; l32i	a4, a2, 4 }
16f224ab:	0020c0                                    	memw
16f224ae:	0338                                    	l32i.n	a3, a3, 0
16f224b0:	0020c0                                    	memw
16f224b3:	0439                                    	s32i.n	a3, a4, 0
16f224b5:	f01d                                    	retw.n

16f224b7 <circ_buf_flush+0x17>:
	...

16f224b8 <circ_buf_copy>:
16f224b8:	008136                                    	entry	a1, 64
16f224bb:	045416                                    	beqz	a4, 16f22504 <circ_buf_copy+0x4c>
16f224be:	042216                                    	beqz	a2, 16f22504 <circ_buf_copy+0x4c>
16f224c1:	f3bc                                    	beqz.n	a3, 16f22504 <circ_buf_copy+0x4c>
16f224c3:	02b8                                    	l32i.n	a11, a2, 0
16f224c5:	0020c0                                    	memw
16f224c8:	12d8                                    	l32i.n	a13, a2, 4
16f224ca:	0bb8                                    	l32i.n	a11, a11, 0
16f224cc:	0020c0                                    	memw
16f224cf:	0da8                                    	l32i.n	a10, a13, 0
16f224d1:	3c03820308006bae                  	{ bltu.w15	a11, a10, 16f224e1 <circ_buf_copy+0x29>; l32i	a12, a2, 12 }
16f224d9:	2a069b40007a090e                  	{ j	16f224e6 <circ_buf_copy+0x2e>; sub	a10, a11, a10 }

16f224e1 <circ_buf_copy+0x29>:
16f224e1:	c0aca0                                    	sub	a10, a12, a10
16f224e4:	abaa                                    	add.n	a10, a11, a10
16f224e6:	1a3a47                                    	bltu	a10, a4, 16f22504 <circ_buf_copy+0x4c>
16f224e9:	03c8                                    	l32i.n	a12, a3, 0
16f224eb:	0020c0                                    	memw
16f224ee:	13b8                                    	l32i.n	a11, a3, 4
16f224f0:	0ce8                                    	l32i.n	a14, a12, 0
16f224f2:	0020c0                                    	memw
16f224f5:	0bb8                                    	l32i.n	a11, a11, 0
16f224f7:	33a8                                    	l32i.n	a10, a3, 12
16f224f9:	1b069e07081a5ebe                  	{ bltu.w15	a14, a11, 16f22508 <circ_buf_copy+0x50>; sub	a9, a14, a11 }
16f22501:	000206                                    	j	16f2250d <circ_buf_copy+0x55>

16f22504 <circ_buf_copy+0x4c>:
16f22504:	020c                                    	movi.n	a2, 0
16f22506:	f01d                                    	retw.n

16f22508 <circ_buf_copy+0x50>:
16f22508:	c09ab0                                    	sub	a9, a10, a11
16f2250b:	9e9a                                    	add.n	a9, a14, a9
16f2250d:	c0ba90                                    	sub	a11, a10, a9
16f22510:	ff0b16                                    	beqz	a11, 16f22504 <circ_buf_copy+0x4c>
16f22513:	edb4b7                                    	bgeu	a4, a11, 16f22504 <circ_buf_copy+0x4c>
16f22516:	0020c0                                    	memw
16f22519:	002d72                                    	l32i	a7, a13, 0
16f2251c:	3703a2401880017e                  	{ s32i	a7, a1, 12; l32i	a6, a2, 12 }
16f22524:	0222b2                                    	l32i	a11, a2, 8
16f22527:	c06670                                    	sub	a6, a6, a7
16f2252a:	3706ab4510f1964e                  	{ minu	a6, a6, a4; add	a7, a11, a7 }
16f22532:	0020c0                                    	memw
16f22535:	002c52                                    	l32i	a5, a12, 0
16f22538:	16b616                                    	beqz	a6, 16f226a7 <circ_buf_copy+0x1ef>
16f2253b:	c09a50                                    	sub	a9, a10, a5
16f2253e:	639960                                    	minu	a9, a9, a6
16f22541:	19069625041b97ee                  	{ bnez.w15	a7, 16f22578 <circ_buf_copy+0xc0>; sub	a13, a6, a9 }
16f22549:	018916                                    	beqz	a9, 16f22565 <circ_buf_copy+0xad>
16f2254c:	0223a2                                    	l32i	a10, a3, 8
16f2254f:	0b042041008011de                  	{ s32i	a13, a1, 16; movi	a11, 0 }
16f22557:	0806994214eb3a5e                  	{ add	a10, a10, a5; or	a12, a9, a9 }
16f2255f:	138525                                    	call8	16f35db0 <memset>
16f22562:	0421d2                                    	l32i	a13, a1, 16
16f22565:	040d16                                    	beqz	a13, 16f225a9 <circ_buf_copy+0xf1>
16f22568:	0dcd                                    	mov.n	a12, a13
16f2256a:	2a03c340008000be                  	{ movi	a11, 0; l32i	a10, a3, 8 }
16f22572:	1383e5                                    	call8	16f35db0 <memset>
16f22575:	000c06                                    	j	16f225a9 <circ_buf_copy+0xf1>

16f22578 <circ_buf_copy+0xc0>:
16f22578:	006192                                    	s32i	a9, a1, 0
16f2257b:	019916                                    	beqz	a9, 16f22598 <circ_buf_copy+0xe0>
16f2257e:	0223a2                                    	l32i	a10, a3, 8
16f22581:	3706b741008a11de                  	{ s32i	a13, a1, 16; or	a11, a7, a7 }
16f22589:	0806994214eb3a5e                  	{ add	a10, a10, a5; or	a12, a9, a9 }
16f22591:	1356e5                                    	call8	16f35b00 <memcpy>
16f22594:	41d8                                    	l32i.n	a13, a1, 16
16f22596:	0198                                    	l32i.n	a9, a1, 0
16f22598:	00dd16                                    	beqz	a13, 16f225a9 <circ_buf_copy+0xf1>
16f2259b:	20cdd0                                    	or	a12, a13, a13
16f2259e:	2a0383421ce0297e                  	{ add	a11, a9, a7; l32i	a10, a3, 8 }
16f225a6:	1355a5                                    	call8	16f35b00 <memcpy>
16f225a9:	0323a2                                    	l32i	a10, a3, 12
16f225ac:	360696421ce9265e                  	{ add	a11, a6, a5; or	a7, a6, a6 }
16f225b4:	0c03830708007bae                  	{ bltu.w15	a11, a10, 16f225c5 <circ_buf_copy+0x10d>; l32i	a13, a3, 0 }
16f225bc:	1a069b40007a070e                  	{ j	16f225c7 <circ_buf_copy+0x10f>; sub	a9, a11, a10 }

16f225c4 <circ_buf_copy+0x10c>:
	...

16f225c5 <circ_buf_copy+0x10d>:
16f225c5:	0b9d                                    	mov.n	a9, a11
16f225c7:	0020c0                                    	memw
16f225ca:	22b8                                    	l32i.n	a11, a2, 8
16f225cc:	0d03a34000800d9e                  	{ s32i	a9, a13, 0; l32i	a12, a3, 0 }
16f225d4:	20abb0                                    	or	a10, a11, a11
16f225d7:	0020c0                                    	memw
16f225da:	c06460                                    	sub	a6, a4, a6
16f225dd:	0503ec24000076ae                  	{ beqz.w15	a6, 16f226b0 <circ_buf_copy+0x1f8>; l32i	a5, a12, 0 }
16f225e5:	032392                                    	l32i	a9, a3, 12
16f225e8:	c09950                                    	sub	a9, a9, a5
16f225eb:	639960                                    	minu	a9, a9, a6
16f225ee:	18069621041bbbee                  	{ bnez.w15	a11, 16f22626 <circ_buf_copy+0x16e>; sub	a13, a6, a9 }
16f225f6:	016916                                    	beqz	a9, 16f22610 <circ_buf_copy+0x158>
16f225f9:	23a8                                    	l32i.n	a10, a3, 8
16f225fb:	0b042041088011de                  	{ s32i	a13, a1, 20; movi	a11, 0 }
16f22603:	0806994214eb3a5e                  	{ add	a10, a10, a5; or	a12, a9, a9 }
16f2260b:	137a65                                    	call8	16f35db0 <memset>
16f2260e:	51d8                                    	l32i.n	a13, a1, 20
16f22610:	049d16                                    	beqz	a13, 16f2265d <circ_buf_copy+0x1a5>
16f22613:	0dcd                                    	mov.n	a12, a13
16f22615:	2a03c340008000be                  	{ movi	a11, 0; l32i	a10, a3, 8 }
16f2261d:	137925                                    	call8	16f35db0 <memset>
16f22620:	000e46                                    	j	16f2265d <circ_buf_copy+0x1a5>

16f22623 <circ_buf_copy+0x16b>:
16f22623:	000000                                        ...

16f22626 <circ_buf_copy+0x16e>:
16f22626:	016192                                    	s32i	a9, a1, 4
16f22629:	0261a2                                    	s32i	a10, a1, 8
16f2262c:	01c916                                    	beqz	a9, 16f2264c <circ_buf_copy+0x194>
16f2262f:	23a8                                    	l32i.n	a10, a3, 8
16f22631:	2b03a141088011de                  	{ s32i	a13, a1, 20; l32i	a11, a1, 8 }
16f22639:	0806994214eb3a5e                  	{ add	a10, a10, a5; or	a12, a9, a9 }
16f22641:	134be5                                    	call8	16f35b00 <memcpy>
16f22644:	1c0381400c81119e                  	{ l32i	a9, a1, 4; l32i	a13, a1, 20 }
16f2264c:	dd8c                                    	beqz.n	a13, 16f2265d <circ_buf_copy+0x1a5>
16f2264e:	21c8                                    	l32i.n	a12, a1, 8
16f22650:	23a8                                    	l32i.n	a10, a3, 8

16f22652 <circ_buf_copy+0x19a>:
16f22652:	3c06a94700f2edde                  	{ or	a12, a13, a13; add	a11, a9, a12 }
16f2265a:	134a65                                    	call8	16f35b00 <memcpy>
16f2265d:	33a8                                    	l32i.n	a10, a3, 12
16f2265f:	b65a                                    	add.n	a11, a6, a5
16f22661:	0d03830708007bae                  	{ bltu.w15	a11, a10, 16f22674 <circ_buf_copy+0x1bc>; l32i	a13, a3, 0 }
16f22669:	1a069b40007a090e                  	{ j	16f22676 <circ_buf_copy+0x1be>; sub	a9, a11, a10 }

16f22671 <circ_buf_copy+0x1b9>:
16f22671:	000000                                        ...

16f22674 <circ_buf_copy+0x1bc>:
16f22674:	0b9d                                    	mov.n	a9, a11
16f22676:	06bd                                    	mov.n	a11, a6
16f22678:	0020c0                                    	memw
16f2267b:	0d99                                    	s32i.n	a9, a13, 0
16f2267d:	31a8                                    	l32i.n	a10, a1, 12
16f2267f:	32c8                                    	l32i.n	a12, a2, 12
16f22681:	a4aa                                    	add.n	a10, a4, a10
16f22683:	113ac7                                    	bltu	a10, a12, 16f22698 <circ_buf_copy+0x1e0>
16f22686:	12e8                                    	l32i.n	a14, a2, 4
16f22688:	c0dac0                                    	sub	a13, a10, a12
16f2268b:	0020c0                                    	memw
16f2268e:	2706ab4000901ede                  	{ s32i	a13, a14, 0; add	a2, a11, a7 }
16f22696:	f01d                                    	retw.n

16f22698 <circ_buf_copy+0x1e0>:
16f22698:	12f8                                    	l32i.n	a15, a2, 4
16f2269a:	0020c0                                    	memw
16f2269d:	2706ab4000901fae                  	{ s32i	a10, a15, 0; add	a2, a11, a7 }
16f226a5:	f01d                                    	retw.n

16f226a7 <circ_buf_copy+0x1ef>:
16f226a7:	070400471c60f92e                  	{ j	16f225d4 <circ_buf_copy+0x11c>; movi	a7, 0 }

16f226af <circ_buf_copy+0x1f7>:
	...

16f226b0 <circ_buf_copy+0x1f8>:
16f226b0:	0b0400471c60f9ce                  	{ j	16f2267d <circ_buf_copy+0x1c5>; movi	a11, 0 }

16f226b8 <rbuf_create>:
16f226b8:	004136                                    	entry	a1, 32
16f226bb:	3a044440088010ae                  	{ movi	a10, 16; movi	a11, 52 }
16f226c3:	ffc9e5                                    	call8	16f22360 <HI_ADSP_MALLOC>
16f226c6:	204aa0                                    	or	a4, a10, a10
16f226c9:	0504002100005aee                  	{ bnez.w15	a10, 16f226d7 <rbuf_create+0x1f>; movi	a5, 0 }
16f226d1:	006252                                    	s32i	a5, a2, 0
16f226d4:	000090                                    	retw

16f226d7 <rbuf_create+0x1f>:
16f226d7:	3406d540188a14ce                  	{ movi	a12, 52; or	a11, a5, a5 }
16f226df:	136d25                                    	call8	16f35db0 <memset>
16f226e2:	20a440                                    	or	a10, a4, a4
16f226e5:	3206d340108a14ce                  	{ movi	a12, 36; or	a11, a3, a3 }
16f226ed:	134125                                    	call8	16f35b00 <memcpy>
16f226f0:	002382                                    	l32i	a8, a3, 0
16f226f3:	02c816                                    	beqz	a8, 16f22723 <rbuf_create+0x6b>
16f226f6:	0224c2                                    	l32i	a12, a4, 8
16f226f9:	1b03a443008014ce                  	{ s32i	a12, a4, 48; l32i	a11, a4, 4 }
16f22701:	0903a442188114be                  	{ s32i	a11, a4, 44; l32i	a9, a4, 16 }
16f22709:	3b03a4421080049e                  	{ s32i	a9, a4, 40; l32i	a10, a4, 12 }
16f22711:	0964a2                                    	s32i	a10, a4, 36
16f22714:	0020c0                                    	memw
16f22717:	006a52                                    	s32i	a5, a10, 0
16f2271a:	0020c0                                    	memw
16f2271d:	0959                                    	s32i.n	a5, a9, 0
16f2271f:	0249                                    	s32i.n	a4, a2, 0
16f22721:	f01d                                    	retw.n

16f22723 <rbuf_create+0x6b>:
16f22723:	10a0a2                                    	movi	a10, 16
16f22726:	2c038340148103be                  	{ l32i	a11, a3, 8; l32i	a12, a3, 24 }
16f2272e:	ffcf25                                    	call8	16f22420 <hi_adsp_vmalloc_aligned>
16f22731:	02da16                                    	beqz	a10, 16f22762 <rbuf_create+0xaa>
16f22734:	0b64a2                                    	s32i	a10, a4, 44
16f22737:	2f03a340088014ae                  	{ s32i	a10, a4, 4; l32i	a15, a3, 8 }
16f2273f:	c4f9                                    	s32i.n	a15, a4, 48
16f22741:	0d03a440108114fe                  	{ s32i	a15, a4, 8; l32i	a13, a4, 16 }
16f22749:	3f03a442108004de                  	{ s32i	a13, a4, 40; l32i	a14, a4, 12 }
16f22751:	94e9                                    	s32i.n	a14, a4, 36
16f22753:	0020c0                                    	memw
16f22756:	0e59                                    	s32i.n	a5, a14, 0
16f22758:	0020c0                                    	memw
16f2275b:	0d59                                    	s32i.n	a5, a13, 0
16f2275d:	0249                                    	s32i.n	a4, a2, 0
16f2275f:	f01d                                    	retw.n

16f22761 <rbuf_create+0xa9>:
	...

16f22762 <rbuf_create+0xaa>:
16f22762:	3406d440088a00ae                  	{ movi	a10, 16; or	a11, a4, a4 }
16f2276a:	ffc065                                    	call8	16f22370 <HI_ADSP_FREE>
16f2276d:	0259                                    	s32i.n	a5, a2, 0
16f2276f:	f01d                                    	retw.n

16f22771 <rbuf_create+0xb9>:
16f22771:	000000                                        ...

16f22774 <rbuf_create_ext>:
16f22774:	004136                                    	entry	a1, 32
16f22777:	3a044440088010ae                  	{ movi	a10, 16; movi	a11, 52 }
16f2277f:	ffbe25                                    	call8	16f22360 <HI_ADSP_MALLOC>
16f22782:	204aa0                                    	or	a4, a10, a10
16f22785:	0504002100005aee                  	{ bnez.w15	a10, 16f22793 <rbuf_create_ext+0x1f>; movi	a5, 0 }
16f2278d:	006252                                    	s32i	a5, a2, 0
16f22790:	000090                                    	retw

16f22793 <rbuf_create_ext+0x1f>:
16f22793:	3406d540188a14ce                  	{ movi	a12, 52; or	a11, a5, a5 }
16f2279b:	136165                                    	call8	16f35db0 <memset>
16f2279e:	20a440                                    	or	a10, a4, a4
16f227a1:	3206d340108a14ce                  	{ movi	a12, 36; or	a11, a3, a3 }
16f227a9:	133565                                    	call8	16f35b00 <memcpy>
16f227ac:	002382                                    	l32i	a8, a3, 0
16f227af:	022816                                    	beqz	a8, 16f227d5 <rbuf_create_ext+0x61>
16f227b2:	0224c2                                    	l32i	a12, a4, 8
16f227b5:	1b03a443008014ce                  	{ s32i	a12, a4, 48; l32i	a11, a4, 4 }
16f227bd:	0b03a442188104be                  	{ s32i	a11, a4, 44; l32i	a10, a4, 16 }
16f227c5:	3903a442108014ae                  	{ s32i	a10, a4, 40; l32i	a9, a4, 12 }
16f227cd:	096492                                    	s32i	a9, a4, 36
16f227d0:	006242                                    	s32i	a4, a2, 0
16f227d3:	f01d                                    	retw.n

16f227d5 <rbuf_create_ext+0x61>:
16f227d5:	10a0a2                                    	movi	a10, 16
16f227d8:	2c038340148103be                  	{ l32i	a11, a3, 8; l32i	a12, a3, 24 }
16f227e0:	ffc3e5                                    	call8	16f22420 <hi_adsp_vmalloc_aligned>
16f227e3:	029a16                                    	beqz	a10, 16f22810 <rbuf_create_ext+0x9c>
16f227e6:	0b64a2                                    	s32i	a10, a4, 44
16f227e9:	2f03a340088014ae                  	{ s32i	a10, a4, 4; l32i	a15, a3, 8 }
16f227f1:	c4f9                                    	s32i.n	a15, a4, 48
16f227f3:	0f03a440108104fe                  	{ s32i	a15, a4, 8; l32i	a14, a4, 16 }
16f227fb:	3d03a442108014ee                  	{ s32i	a14, a4, 40; l32i	a13, a4, 12 }
16f22803:	94d9                                    	s32i.n	a13, a4, 36
16f22805:	0249                                    	s32i.n	a4, a2, 0
16f22807:	f01d                                    	retw.n

16f22809 <rbuf_create_ext+0x95>:
16f22809:	00000000 ae000000                                .......

16f22810 <rbuf_create_ext+0x9c>:
16f22810:	3406d440088a00ae                  	{ movi	a10, 16; or	a11, a4, a4 }
16f22818:	ffb565                                    	call8	16f22370 <HI_ADSP_FREE>
16f2281b:	0259                                    	s32i.n	a5, a2, 0
16f2281d:	f01d                                    	retw.n

16f2281f <rbuf_create_ext+0xab>:
16f2281f:	000000                                        ...

16f22822 <rbuf_create_ext+0xae>:
	...

16f22824 <rbuf_destroy>:
16f22824:	004136                                    	entry	a1, 32
16f22827:	329c                                    	beqz.n	a2, 16f2283e <rbuf_destroy+0x1a>
16f22829:	0288                                    	l32i.n	a8, a2, 0
16f2282b:	0020f0                                    	nop
16f2282e:	089c                                    	beqz.n	a8, 16f22842 <rbuf_destroy+0x1e>

16f22830 <rbuf_destroy+0xc>:
16f22830:	3206d240088a00ae                  	{ movi	a10, 16; or	a11, a2, a2 }
16f22838:	0020f0                                    	nop
16f2283b:	ffb365                                    	call8	16f22370 <HI_ADSP_FREE>
16f2283e:	f01d                                    	retw.n

16f22840 <rbuf_destroy+0x1c>:
	...

16f22842 <rbuf_destroy+0x1e>:
16f22842:	1a0400400c8002be                  	{ l32i	a11, a2, 4; movi	a10, 16 }
16f2284a:	ffc3e5                                    	call8	16f22488 <hi_adsp_vfree_aligned>
16f2284d:	fff7c6                                    	j	16f22830 <rbuf_destroy+0xc>

16f22850 <rbuf_destroy+0x2c>:
16f22850:	000000                                        ...

16f22853 <rbuf_destroy+0x2f>:
	...

16f22854 <rbuf_read_data>:
16f22854:	004136                                    	entry	a1, 32
16f22857:	08f216                                    	beqz	a2, 16f228ea <rbuf_read_data+0x96>
16f2285a:	a2c8                                    	l32i.n	a12, a2, 40
16f2285c:	0020c0                                    	memw
16f2285f:	92b8                                    	l32i.n	a11, a2, 36
16f22861:	0c58                                    	l32i.n	a5, a12, 0
16f22863:	0020c0                                    	memw
16f22866:	0bb8                                    	l32i.n	a11, a11, 0
16f22868:	c2a8                                    	l32i.n	a10, a2, 48
16f2286a:	15069b07081b3b5e                  	{ bltu.w15	a11, a5, 16f22875 <rbuf_read_data+0x21>; sub	a13, a11, a5 }
16f22872:	000106                                    	j	16f2287a <rbuf_read_data+0x26>

16f22875 <rbuf_read_data+0x21>:
16f22875:	c0da50                                    	sub	a13, a10, a5
16f22878:	dbda                                    	add.n	a13, a11, a13
16f2287a:	1034d7                                    	bltu	a4, a13, 16f2288e <rbuf_read_data+0x3a>
16f2287d:	04069b0308195b5e                  	{ bltu.w15	a11, a5, 16f22889 <rbuf_read_data+0x35>; sub	a4, a11, a5 }
16f22885:	000146                                    	j	16f2288e <rbuf_read_data+0x3a>

16f22888 <rbuf_read_data+0x34>:
	...

16f22889 <rbuf_read_data+0x35>:
16f22889:	c04a50                                    	sub	a4, a10, a5
16f2288c:	4b4a                                    	add.n	a4, a11, a4
16f2288e:	33ec                                    	bnez.n	a3, 16f228b5 <rbuf_read_data+0x61>
16f22890:	b45a                                    	add.n	a11, a4, a5
16f22892:	0a069b07081a8bae                  	{ bltu.w15	a11, a10, 16f228a7 <rbuf_read_data+0x53>; sub	a8, a11, a10 }
16f2289a:	0020c0                                    	memw
16f2289d:	2506b44000880c8e                  	{ s32i	a8, a12, 0; or	a2, a4, a4 }
16f228a5:	f01d                                    	retw.n

16f228a7 <rbuf_read_data+0x53>:
16f228a7:	0020c0                                    	memw
16f228aa:	2506b44000880cbe                  	{ s32i	a11, a12, 0; or	a2, a4, a4 }
16f228b2:	f01d                                    	retw.n

16f228b4 <rbuf_read_data+0x60>:
	...

16f228b5 <rbuf_read_data+0x61>:
16f228b5:	0b22b2                                    	l32i	a11, a2, 44
16f228b8:	c06a50                                    	sub	a6, a10, a5
16f228bb:	2306b34510ea964e                  	{ minu	a6, a6, a4; or	a10, a3, a3 }
16f228c3:	060696421ceb2b5e                  	{ add	a11, a11, a5; or	a12, a6, a6 }
16f228cb:	132365                                    	call8	16f35b00 <memcpy>
16f228ce:	80a360                                    	add	a10, a3, a6
16f228d1:	060694421c9b02be                  	{ l32i	a11, a2, 44; sub	a12, a4, a6 }
16f228d9:	132265                                    	call8	16f35b00 <memcpy>
16f228dc:	0a22c2                                    	l32i	a12, a2, 40
16f228df:	0b0382471c63edae                  	{ j	16f22890 <rbuf_read_data+0x3c>; l32i	a10, a2, 48 }

16f228e7 <rbuf_read_data+0x93>:
16f228e7:	000000                                        ...

16f228ea <rbuf_read_data+0x96>:
16f228ea:	020c                                    	movi.n	a2, 0
16f228ec:	f01d                                    	retw.n

16f228ee <rbuf_read_data+0x9a>:
	...

16f228f0 <rbuf_write_data>:
16f228f0:	004136                                    	entry	a1, 32
16f228f3:	095216                                    	beqz	a2, 16f2298c <rbuf_write_data+0x9c>
16f228f6:	092252                                    	l32i	a5, a2, 36
16f228f9:	0020c0                                    	memw
16f228fc:	040385430480126e                  	{ l32i	a6, a2, 48; l32i	a5, a5, 0 }
16f22904:	0b22a2                                    	l32i	a10, a2, 44
16f22907:	085416                                    	beqz	a4, 16f22990 <rbuf_write_data+0xa0>
16f2290a:	c06650                                    	sub	a6, a6, a5
16f2290d:	2506aa4510f2964e                  	{ minu	a6, a6, a4; add	a10, a10, a5 }
16f22915:	37069425041923ee                  	{ bnez.w15	a3, 16f22940 <rbuf_write_data+0x50>; sub	a7, a4, a6 }
16f2291d:	0a04204700e0f66e                  	{ or	a12, a6, a6; movi	a11, 0 }
16f22925:	1348a5                                    	call8	16f35db0 <memset>
16f22928:	0b22a2                                    	l32i	a10, a2, 44
16f2292b:	0a04204700e0f77e                  	{ or	a12, a7, a7; movi	a11, 0 }
16f22933:	1347e5                                    	call8	16f35db0 <memset>
16f22936:	000906                                    	j	16f2295e <rbuf_write_data+0x6e>

16f22939 <rbuf_write_data+0x49>:
16f22939:	000000                                        ...

16f2293c <rbuf_write_data+0x4c>:
16f2293c:	00000000                                ....

16f22940 <rbuf_write_data+0x50>:
16f22940:	0606b64618ebe33e                  	{ or	a11, a3, a3; or	a12, a6, a6 }
16f22948:	0020f0                                    	nop
16f2294b:	131b65                                    	call8	16f35b00 <memcpy>
16f2294e:	b36a                                    	add.n	a11, a3, a6
16f22950:	3a03a24700e2e77e                  	{ or	a12, a7, a7; l32i	a10, a2, 44 }
16f22958:	0020f0                                    	nop
16f2295b:	131a65                                    	call8	16f35b00 <memcpy>
16f2295e:	c2b8                                    	l32i.n	a11, a2, 48
16f22960:	240684420c92128e                  	{ l32i	a8, a2, 36; add	a10, a4, a5 }
16f22968:	1a069a07081a9abe                  	{ bltu.w15	a10, a11, 16f2297d <rbuf_write_data+0x8d>; sub	a9, a10, a11 }
16f22970:	0020c0                                    	memw
16f22973:	2506b4400088089e                  	{ s32i	a9, a8, 0; or	a2, a4, a4 }
16f2297b:	f01d                                    	retw.n

16f2297d <rbuf_write_data+0x8d>:
16f2297d:	9288                                    	l32i.n	a8, a2, 36
16f2297f:	0020c0                                    	memw
16f22982:	2506b440008808ae                  	{ s32i	a10, a8, 0; or	a2, a4, a4 }
16f2298a:	f01d                                    	retw.n

16f2298c <rbuf_write_data+0x9c>:
16f2298c:	042d                                    	mov.n	a2, a4
16f2298e:	f01d                                    	retw.n

16f22990 <rbuf_write_data+0xa0>:
16f22990:	020c                                    	movi.n	a2, 0
16f22992:	f01d                                    	retw.n

16f22994 <rbuf_read_data_complete>:
16f22994:	004136                                    	entry	a1, 32
16f22997:	f29c                                    	beqz.n	a2, 16f229ba <rbuf_read_data_complete+0x26>
16f22999:	a268                                    	l32i.n	a6, a2, 40
16f2299b:	0020c0                                    	memw
16f2299e:	0648                                    	l32i.n	a4, a6, 0
16f229a0:	c278                                    	l32i.n	a7, a2, 48
16f229a2:	234a                                    	add.n	a2, a3, a4
16f229a4:	07069207081a527e                  	{ bltu.w15	a2, a7, 16f229b3 <rbuf_read_data_complete+0x1f>; sub	a8, a2, a7 }
16f229ac:	0020c0                                    	memw
16f229af:	0689                                    	s32i.n	a8, a6, 0
16f229b1:	f01d                                    	retw.n

16f229b3 <rbuf_read_data_complete+0x1f>:
16f229b3:	0020c0                                    	memw
16f229b6:	0629                                    	s32i.n	a2, a6, 0
16f229b8:	f01d                                    	retw.n

16f229ba <rbuf_read_data_complete+0x26>:
16f229ba:	f01d                                    	retw.n

16f229bc <rbuf_write_data_complete>:
16f229bc:	004136                                    	entry	a1, 32
16f229bf:	f29c                                    	beqz.n	a2, 16f229e2 <rbuf_write_data_complete+0x26>
16f229c1:	9268                                    	l32i.n	a6, a2, 36
16f229c3:	0020c0                                    	memw
16f229c6:	0648                                    	l32i.n	a4, a6, 0
16f229c8:	c278                                    	l32i.n	a7, a2, 48
16f229ca:	234a                                    	add.n	a2, a3, a4
16f229cc:	07069207081a527e                  	{ bltu.w15	a2, a7, 16f229db <rbuf_write_data_complete+0x1f>; sub	a8, a2, a7 }
16f229d4:	0020c0                                    	memw
16f229d7:	0689                                    	s32i.n	a8, a6, 0
16f229d9:	f01d                                    	retw.n

16f229db <rbuf_write_data_complete+0x1f>:
16f229db:	0020c0                                    	memw
16f229de:	0629                                    	s32i.n	a2, a6, 0
16f229e0:	f01d                                    	retw.n

16f229e2 <rbuf_write_data_complete+0x26>:
16f229e2:	f01d                                    	retw.n

16f229e4 <rbuf_query_info>:
16f229e4:	004136                                    	entry	a1, 32
16f229e7:	04a216                                    	beqz	a2, 16f22a35 <rbuf_query_info+0x51>
16f229ea:	b288                                    	l32i.n	a8, a2, 44
16f229ec:	3703a2400081138e                  	{ s32i	a8, a3, 0; l32i	a7, a2, 28 }
16f229f4:	0703a2411083137e                  	{ s32i	a7, a3, 24; l32i	a7, a2, 48 }
16f229fc:	3379                                    	s32i.n	a7, a3, 12
16f229fe:	9268                                    	l32i.n	a6, a2, 36
16f22a00:	0020c0                                    	memw
16f22a03:	0668                                    	l32i.n	a6, a6, 0
16f22a05:	2369                                    	s32i.n	a6, a3, 8
16f22a07:	a228                                    	l32i.n	a2, a2, 40
16f22a09:	0020c0                                    	memw
16f22a0c:	0228                                    	l32i.n	a2, a2, 0
16f22a0e:	1329                                    	s32i.n	a2, a3, 4
16f22a10:	12069603081a862e                  	{ bltu.w15	a6, a2, 16f22a24 <rbuf_query_info+0x40>; sub	a9, a6, a2 }
16f22a18:	1906b741009a139e                  	{ s32i	a9, a3, 16; sub	a9, a7, a9 }
16f22a20:	5399                                    	s32i.n	a9, a3, 20
16f22a22:	f01d                                    	retw.n

16f22a24 <rbuf_query_info+0x40>:
16f22a24:	c0a720                                    	sub	a10, a7, a2
16f22a27:	a6aa                                    	add.n	a10, a6, a10

16f22a29 <rbuf_query_info+0x45>:
16f22a29:	2b06b741009a03ae                  	{ s32i	a10, a3, 16; sub	a10, a7, a10 }
16f22a31:	53a9                                    	s32i.n	a10, a3, 20
16f22a33:	f01d                                    	retw.n

16f22a35 <rbuf_query_info+0x51>:
16f22a35:	0b0c                                    	movi.n	a11, 0
16f22a37:	03b9                                    	s32i.n	a11, a3, 0
16f22a39:	13b9                                    	s32i.n	a11, a3, 4
16f22a3b:	23b9                                    	s32i.n	a11, a3, 8
16f22a3d:	33b9                                    	s32i.n	a11, a3, 12
16f22a3f:	43b9                                    	s32i.n	a11, a3, 16
16f22a41:	53b9                                    	s32i.n	a11, a3, 20
16f22a43:	63b9                                    	s32i.n	a11, a3, 24
16f22a45:	f01d                                    	retw.n

16f22a47 <rbuf_query_info+0x63>:
	...

16f22a48 <rbuf_query_busy_provide_rptr>:
16f22a48:	004136                                    	entry	a1, 32
16f22a4b:	f29c                                    	beqz.n	a2, 16f22a6e <rbuf_query_busy_provide_rptr+0x26>
16f22a4d:	9268                                    	l32i.n	a6, a2, 36
16f22a4f:	0020c0                                    	memw
16f22a52:	020382400483033e                  	{ l32i	a3, a3, 0; l32i	a2, a2, 48 }
16f22a5a:	0668                                    	l32i.n	a6, a6, 0
16f22a5c:	c02230                                    	sub	a2, a2, a3
16f22a5f:	220686070810463e                  	{ bltu.w15	a6, a3, 16f22a6c <rbuf_query_busy_provide_rptr+0x24>; add	a2, a6, a2 }
16f22a67:	c02630                                    	sub	a2, a6, a3
16f22a6a:	f01d                                    	retw.n

16f22a6c <rbuf_query_busy_provide_rptr+0x24>:
16f22a6c:	f01d                                    	retw.n

16f22a6e <rbuf_query_busy_provide_rptr+0x26>:
16f22a6e:	020c                                    	movi.n	a2, 0
16f22a70:	f01d                                    	retw.n

16f22a72 <rbuf_query_busy_provide_rptr+0x2a>:
	...

16f22a74 <rbuf_query_busy>:
16f22a74:	004136                                    	entry	a1, 32
16f22a77:	32ac                                    	beqz.n	a2, 16f22a9e <rbuf_query_busy+0x2a>
16f22a79:	9268                                    	l32i.n	a6, a2, 36
16f22a7b:	0020c0                                    	memw
16f22a7e:	a258                                    	l32i.n	a5, a2, 40
16f22a80:	0668                                    	l32i.n	a6, a6, 0
16f22a82:	0020c0                                    	memw
16f22a85:	020382400483055e                  	{ l32i	a5, a5, 0; l32i	a2, a2, 48 }
16f22a8d:	240692070818565e                  	{ bltu.w15	a6, a5, 16f22a9a <rbuf_query_busy+0x26>; sub	a2, a2, a5 }
16f22a95:	c02650                                    	sub	a2, a6, a5
16f22a98:	f01d                                    	retw.n

16f22a9a <rbuf_query_busy+0x26>:
16f22a9a:	262a                                    	add.n	a2, a6, a2
16f22a9c:	f01d                                    	retw.n

16f22a9e <rbuf_query_busy+0x2a>:
16f22a9e:	020c                                    	movi.n	a2, 0
16f22aa0:	f01d                                    	retw.n

16f22aa2 <rbuf_query_busy+0x2e>:
	...

16f22aa4 <rbuf_query_free>:
16f22aa4:	004136                                    	entry	a1, 32
16f22aa7:	52bc                                    	beqz.n	a2, 16f22ae0 <rbuf_query_free+0x3c>
16f22aa9:	240382420c81127e                  	{ l32i	a7, a2, 36; l32i	a5, a2, 24 }
16f22ab1:	0020c0                                    	memw
16f22ab4:	a268                                    	l32i.n	a6, a2, 40
16f22ab6:	0778                                    	l32i.n	a7, a7, 0
16f22ab8:	0020c0                                    	memw
16f22abb:	0668                                    	l32i.n	a6, a6, 0
16f22abd:	c228                                    	l32i.n	a2, a2, 48
16f22abf:	083767                                    	bltu	a7, a6, 16f22acb <rbuf_query_free+0x27>
16f22ac2:	2606974000790a0e                  	{ j	16f22ad0 <rbuf_query_free+0x2c>; sub	a6, a7, a6 }

16f22aca <rbuf_query_free+0x26>:
	...

16f22acb <rbuf_query_free+0x27>:
16f22acb:	c06260                                    	sub	a6, a2, a6
16f22ace:	676a                                    	add.n	a6, a7, a6
16f22ad0:	c02260                                    	sub	a2, a2, a6
16f22ad3:	04b527                                    	bgeu	a5, a2, 16f22adb <rbuf_query_free+0x37>
16f22ad6:	c02250                                    	sub	a2, a2, a5
16f22ad9:	f01d                                    	retw.n

16f22adb <rbuf_query_free+0x37>:
16f22adb:	020c                                    	movi.n	a2, 0
16f22add:	f01d                                    	retw.n

16f22adf <rbuf_query_free+0x3b>:
	...

16f22ae0 <rbuf_query_free+0x3c>:
16f22ae0:	020c                                    	movi.n	a2, 0
16f22ae2:	f01d                                    	retw.n

16f22ae4 <rbuf_check_free>:
16f22ae4:	004136                                    	entry	a1, 32
16f22ae7:	82bc                                    	beqz.n	a2, 16f22b23 <rbuf_check_free+0x3f>
16f22ae9:	9288                                    	l32i.n	a8, a2, 36
16f22aeb:	0020c0                                    	memw
16f22aee:	a278                                    	l32i.n	a7, a2, 40
16f22af0:	0888                                    	l32i.n	a8, a8, 0
16f22af2:	0020c0                                    	memw
16f22af5:	0778                                    	l32i.n	a7, a7, 0
16f22af7:	320382430481026e                  	{ l32i	a6, a2, 48; l32i	a2, a2, 28 }
16f22aff:	160698030819587e                  	{ bltu.w15	a8, a7, 16f22b0b <rbuf_check_free+0x27>; sub	a5, a8, a7 }
16f22b07:	000146                                    	j	16f22b10 <rbuf_check_free+0x2c>

16f22b0a <rbuf_check_free+0x26>:
	...

16f22b0b <rbuf_check_free+0x27>:
16f22b0b:	c05670                                    	sub	a5, a6, a7
16f22b0e:	585a                                    	add.n	a5, a8, a5
16f22b10:	130685411cf2565e                  	{ sub	a7, a6, a5; add	a9, a5, a3 }
16f22b18:	22068620001277ae                  	{ beqz.w15	a7, 16f22b28 <rbuf_check_free+0x44>; add	a10, a6, a3 }
16f22b20:	0cb297                                    	bgeu	a2, a9, 16f22b30 <rbuf_check_free+0x4c>
16f22b23:	020c                                    	movi.n	a2, 0
16f22b25:	f01d                                    	retw.n

16f22b27 <rbuf_check_free+0x43>:
	...

16f22b28 <rbuf_check_free+0x44>:
16f22b28:	0704601f0fe0b2ae                  	{ bltu.w15	a2, a10, 16f22b23 <rbuf_check_free+0x3f>; movi	a7, 0 }
16f22b30:	622370                                    	saltu	a2, a3, a7
16f22b33:	f01d                                    	retw.n

16f22b35 <rbuf_check_free+0x51>:
16f22b35:	000000                                        ...

16f22b38 <rbuf_flush>:
16f22b38:	004136                                    	entry	a1, 32
16f22b3b:	428c                                    	beqz.n	a2, 16f22b43 <rbuf_flush+0xb>
16f22b3d:	24c2a2                                    	addi	a10, a2, 36
16f22b40:	ff95e5                                    	call8	16f224a0 <circ_buf_flush>

16f22b43 <rbuf_flush+0xb>:
16f22b43:	f01d                                    	retw.n

16f22b45 <rbuf_flush+0xd>:
16f22b45:	000000                                        ...

16f22b48 <rbuf_read_data_dma>:
16f22b48:	004136                                    	entry	a1, 32
16f22b4b:	097216                                    	beqz	a2, 16f22be6 <rbuf_read_data_dma+0x9e>
16f22b4e:	a2c8                                    	l32i.n	a12, a2, 40
16f22b50:	0020c0                                    	memw
16f22b53:	92a8                                    	l32i.n	a10, a2, 36
16f22b55:	0c58                                    	l32i.n	a5, a12, 0
16f22b57:	0020c0                                    	memw
16f22b5a:	0aa8                                    	l32i.n	a10, a10, 0
16f22b5c:	08a416                                    	beqz	a4, 16f22bea <rbuf_read_data_dma+0xa2>
16f22b5f:	0a03820708037a5e                  	{ bltu.w15	a10, a5, 16f22b70 <rbuf_read_data_dma+0x28>; l32i	a11, a2, 48 }
16f22b67:	14069a40007b1a0e                  	{ j	16f22b75 <rbuf_read_data_dma+0x2d>; sub	a13, a10, a5 }

16f22b6f <rbuf_read_data_dma+0x27>:
	...

16f22b70 <rbuf_read_data_dma+0x28>:
16f22b70:	c0db50                                    	sub	a13, a11, a5
16f22b73:	dada                                    	add.n	a13, a10, a13
16f22b75:	0f34d7                                    	bltu	a4, a13, 16f22b88 <rbuf_read_data_dma+0x40>
16f22b78:	05069a0708193a5e                  	{ bltu.w15	a10, a5, 16f22b83 <rbuf_read_data_dma+0x3b>; sub	a4, a10, a5 }
16f22b80:	000106                                    	j	16f22b88 <rbuf_read_data_dma+0x40>

16f22b83 <rbuf_read_data_dma+0x3b>:
16f22b83:	c04b50                                    	sub	a4, a11, a5
16f22b86:	4a4a                                    	add.n	a4, a10, a4
16f22b88:	25069b200419b3ae                  	{ beqz.w15	a3, 16f22bc2 <rbuf_read_data_dma+0x7a>; sub	a6, a11, a5 }
16f22b90:	636640                                    	minu	a6, a6, a4
16f22b93:	010616                                    	beqz	a6, 16f22ba7 <rbuf_read_data_dma+0x5f>
16f22b96:	0b22b2                                    	l32i	a11, a2, 44
16f22b99:	20a330                                    	or	a10, a3, a3
16f22b9c:	060696421ceb2b5e                  	{ add	a11, a11, a5; or	a12, a6, a6 }
16f22ba4:	12f5a5                                    	call8	16f35b00 <memcpy>
16f22ba7:	c0c460                                    	sub	a12, a4, a6
16f22baa:	cc8c                                    	beqz.n	a12, 16f22bba <rbuf_read_data_dma+0x72>
16f22bac:	3a03824214e2336e                  	{ add	a10, a3, a6; l32i	a11, a2, 44 }
16f22bb4:	0020f0                                    	nop
16f22bb7:	12f4a5                                    	call8	16f35b00 <memcpy>
16f22bba:	0a038242148312ce                  	{ l32i	a12, a2, 40; l32i	a11, a2, 48 }
16f22bc2:	a45a                                    	add.n	a10, a4, a5
16f22bc4:	1a069a07081a9abe                  	{ bltu.w15	a10, a11, 16f22bd9 <rbuf_read_data_dma+0x91>; sub	a9, a10, a11 }
16f22bcc:	0020c0                                    	memw
16f22bcf:	2506b44000880c9e                  	{ s32i	a9, a12, 0; or	a2, a4, a4 }
16f22bd7:	f01d                                    	retw.n

16f22bd9 <rbuf_read_data_dma+0x91>:
16f22bd9:	0020c0                                    	memw
16f22bdc:	2506b44000880cae                  	{ s32i	a10, a12, 0; or	a2, a4, a4 }
16f22be4:	f01d                                    	retw.n

16f22be6 <rbuf_read_data_dma+0x9e>:
16f22be6:	020c                                    	movi.n	a2, 0
16f22be8:	f01d                                    	retw.n

16f22bea <rbuf_read_data_dma+0xa2>:
16f22bea:	020c                                    	movi.n	a2, 0
16f22bec:	f01d                                    	retw.n

16f22bee <rbuf_read_data_dma+0xa6>:
	...

16f22bf0 <rbuf_write_data_dma>:
16f22bf0:	004136                                    	entry	a1, 32
16f22bf3:	096216                                    	beqz	a2, 16f22c8d <rbuf_write_data_dma+0x9d>
16f22bf6:	092252                                    	l32i	a5, a2, 36
16f22bf9:	0020c0                                    	memw
16f22bfc:	040385430480126e                  	{ l32i	a6, a2, 48; l32i	a5, a5, 0 }
16f22c04:	089416                                    	beqz	a4, 16f22c91 <rbuf_write_data_dma+0xa1>
16f22c07:	c06650                                    	sub	a6, a6, a5
16f22c0a:	636640                                    	minu	a6, a6, a4
16f22c0d:	36069421041963ee                  	{ bnez.w15	a3, 16f22c3d <rbuf_write_data_dma+0x4d>; sub	a7, a4, a6 }
16f22c15:	00f616                                    	beqz	a6, 16f22c28 <rbuf_write_data_dma+0x38>
16f22c18:	0b22a2                                    	l32i	a10, a2, 44
16f22c1b:	0b0c                                    	movi.n	a11, 0
16f22c1d:	0606964214eb2a5e                  	{ add	a10, a10, a5; or	a12, a6, a6 }
16f22c25:	1318a5                                    	call8	16f35db0 <memset>

16f22c28 <rbuf_write_data_dma+0x38>:
16f22c28:	67bc                                    	beqz.n	a7, 16f22c62 <rbuf_write_data_dma+0x72>
16f22c2a:	b2a8                                    	l32i.n	a10, a2, 44
16f22c2c:	0a04204700e0f77e                  	{ or	a12, a7, a7; movi	a11, 0 }
16f22c34:	1317a5                                    	call8	16f35db0 <memset>
16f22c37:	0009c6                                    	j	16f22c62 <rbuf_write_data_dma+0x72>

16f22c3a <rbuf_write_data_dma+0x4a>:
16f22c3a:	000000                                        ...

16f22c3d <rbuf_write_data_dma+0x4d>:
16f22c3d:	010616                                    	beqz	a6, 16f22c51 <rbuf_write_data_dma+0x61>
16f22c40:	0b22a2                                    	l32i	a10, a2, 44
16f22c43:	20b330                                    	or	a11, a3, a3
16f22c46:	0606964214eb2a5e                  	{ add	a10, a10, a5; or	a12, a6, a6 }
16f22c4e:	12eb25                                    	call8	16f35b00 <memcpy>
16f22c51:	00d716                                    	beqz	a7, 16f22c62 <rbuf_write_data_dma+0x72>
16f22c54:	80b630                                    	add	a11, a6, a3
16f22c57:	3a03a24700e2e77e                  	{ or	a12, a7, a7; l32i	a10, a2, 44 }
16f22c5f:	12ea25                                    	call8	16f35b00 <memcpy>
16f22c62:	0c22b2                                    	l32i	a11, a2, 48
16f22c65:	a45a                                    	add.n	a10, a4, a5
16f22c67:	1b069a07081a9abe                  	{ bltu.w15	a10, a11, 16f22c7e <rbuf_write_data_dma+0x8e>; sub	a9, a10, a11 }
16f22c6f:	92b8                                    	l32i.n	a11, a2, 36
16f22c71:	0020c0                                    	memw
16f22c74:	2506b44000880b9e                  	{ s32i	a9, a11, 0; or	a2, a4, a4 }
16f22c7c:	f01d                                    	retw.n

16f22c7e <rbuf_write_data_dma+0x8e>:
16f22c7e:	92b8                                    	l32i.n	a11, a2, 36
16f22c80:	0020c0                                    	memw
16f22c83:	2506b44000880bae                  	{ s32i	a10, a11, 0; or	a2, a4, a4 }
16f22c8b:	f01d                                    	retw.n

16f22c8d <rbuf_write_data_dma+0x9d>:
16f22c8d:	042d                                    	mov.n	a2, a4
16f22c8f:	f01d                                    	retw.n

16f22c91 <rbuf_write_data_dma+0xa1>:
16f22c91:	020c                                    	movi.n	a2, 0
16f22c93:	f01d                                    	retw.n

16f22c95 <rbuf_write_data_dma+0xa5>:
16f22c95:	000000                                        ...

16f22c98 <rbuf_copy_data>:
16f22c98:	004136                                    	entry	a1, 32
16f22c9b:	128c                                    	beqz.n	a2, 16f22ca0 <rbuf_copy_data+0x8>
16f22c9d:	003356                                    	bnez	a3, 16f22ca4 <rbuf_copy_data+0xc>

16f22ca0 <rbuf_copy_data+0x8>:
16f22ca0:	020c                                    	movi.n	a2, 0
16f22ca2:	f01d                                    	retw.n

16f22ca4 <rbuf_copy_data+0xc>:
16f22ca4:	0406b44708ebe55e                  	{ or	a13, a5, a5; or	a12, a4, a4 }
16f22cac:	0a02e341046932ae                  	{ addi	a10, a2, 36; addi	a11, a3, 36 }
16f22cb4:	ff8025                                    	call8	16f224b8 <circ_buf_copy>
16f22cb7:	0a2d                                    	mov.n	a2, a10
16f22cb9:	f01d                                    	retw.n

16f22cbb <rbuf_copy_data+0x23>:
	...

16f22cbc <rbuf_update_attr>:
16f22cbc:	004136                                    	entry	a1, 32
16f22cbf:	d28c                                    	beqz.n	a2, 16f22cd0 <rbuf_update_attr+0x14>
16f22cc1:	8388                                    	l32i.n	a8, a3, 32
16f22cc3:	3503a3420081028e                  	{ s32i	a8, a2, 32; l32i	a4, a3, 28 }
16f22ccb:	7249                                    	s32i.n	a4, a2, 28
16f22ccd:	f01d                                    	retw.n

16f22ccf <rbuf_update_attr+0x13>:
	...

16f22cd0 <rbuf_update_attr+0x14>:
16f22cd0:	f01d                                    	retw.n

16f22cd2 <rbuf_update_attr+0x16>:
	...

16f22cd4 <rbuf_read_data_with_action>:
16f22cd4:	006136                                    	entry	a1, 48
16f22cd7:	075216                                    	beqz	a2, 16f22d50 <rbuf_read_data_with_action+0x7c>
16f22cda:	a268                                    	l32i.n	a6, a2, 40
16f22cdc:	0020c0                                    	memw
16f22cdf:	92a8                                    	l32i.n	a10, a2, 36
16f22ce1:	0668                                    	l32i.n	a6, a6, 0
16f22ce3:	0020c0                                    	memw
16f22ce6:	0aa8                                    	l32i.n	a10, a10, 0
16f22ce8:	0c22d2                                    	l32i	a13, a2, 48
16f22ceb:	0606ba07081aaa6e                  	{ bltu.w15	a10, a6, 16f22d44 <rbuf_read_data_with_action+0x70>; sub	a8, a10, a6 }
16f22cf3:	553857                                    	bltu	a8, a5, 16f22d4c <rbuf_read_data_with_action+0x78>

16f22cf6 <rbuf_read_data_with_action+0x22>:
16f22cf6:	c2c8                                    	l32i.n	a12, a2, 48
16f22cf8:	b2b8                                    	l32i.n	a11, a2, 44
16f22cfa:	c0cc60                                    	sub	a12, a12, a6
16f22cfd:	2506b44700ea8c5e                  	{ minu	a12, a12, a5; or	a10, a4, a4 }
16f22d05:	3706ab40009201ce                  	{ s32i	a12, a1, 0; add	a11, a11, a6 }
16f22d0d:	0003e0                                    	callx8	a3
16f22d10:	01c8                                    	l32i.n	a12, a1, 0
16f22d12:	3a069a421c8902be                  	{ l32i	a11, a2, 44; or	a7, a10, a10 }

16f22d1a <rbuf_read_data_with_action+0x46>:
16f22d1a:	2d06844304f245ce                  	{ sub	a12, a5, a12; add	a10, a4, a12 }
16f22d22:	0003e0                                    	callx8	a3
16f22d25:	c2c8                                    	l32i.n	a12, a2, 48
16f22d27:	36068542149202ee                  	{ l32i	a14, a2, 40; add	a11, a5, a6 }
16f22d2f:	1c069b070c1a0bce                  	{ bltu.w15	a11, a12, 16f22d54 <rbuf_read_data_with_action+0x80>; sub	a9, a11, a12 }
16f22d37:	0020c0                                    	memw
16f22d3a:	2b06a74000900e9e                  	{ s32i	a9, a14, 0; add	a2, a7, a10 }
16f22d42:	f01d                                    	retw.n

16f22d44 <rbuf_read_data_with_action+0x70>:
16f22d44:	c0dd60                                    	sub	a13, a13, a6
16f22d47:	dada                                    	add.n	a13, a10, a13
16f22d49:	a9bd57                                    	bgeu	a13, a5, 16f22cf6 <rbuf_read_data_with_action+0x22>
16f22d4c:	020c                                    	movi.n	a2, 0
16f22d4e:	f01d                                    	retw.n

16f22d50 <rbuf_read_data_with_action+0x7c>:
16f22d50:	020c                                    	movi.n	a2, 0
16f22d52:	f01d                                    	retw.n

16f22d54 <rbuf_read_data_with_action+0x80>:
16f22d54:	a2e8                                    	l32i.n	a14, a2, 40
16f22d56:	0020c0                                    	memw
16f22d59:	2b06a74000900ebe                  	{ s32i	a11, a14, 0; add	a2, a7, a10 }
16f22d61:	f01d                                    	retw.n

16f22d63 <rbuf_read_data_with_action+0x8f>:
	...

16f22d70 <sampler_to_d_calc>:
16f22d70:	004136                                    	entry	a1, 32
16f22d73:	230740c000e512ee                  	{ ae_movda32	aed0, a2; nop }
16f22d7b:	220700c004e5d0de                  	{ ae_abs32s	aed0, aed0; nop }
16f22d83:	230700c000e5d62e                  	{ ae_movad32.l	a2, aed0; nop }
16f22d8b:	230740c018e512ee                  	{ ae_movda32	aed3, a2; nop }
16f22d93:	000003f2090300fb71e303062c60b88f 	{ l32r	a8, 16f20bf4 (16effff4 <_memmap_mem_srom_end+0x15e7fff4>); ae_nsaz32.l	a6, aed3; nop }
16f22da3:	f79541                                    	l32r	a4, 16f20bf8 (ffff0000 <xthals_hw_configid0+0x3ffb6d7a>)
16f22da6:	19040920082032ce                  	{ blti.w15	a2, 1, 16f22eb0 <sampler_to_d_calc+0x140>; movi	a9, 25 }
16f22dae:	86ad                                    	ae_sext16	a10, a6
16f22db0:	220700c100a55a0e                  	{ ae_slaa32s	aed1, aed0, a10; nop }
16f22db8:	220700c310a5991e                  	{ ae_sraa32s	aed2, aed1, a9; nop }
16f22dc0:	230700c010e5d65e                  	{ ae_movad32.l	a5, aed2; nop }
16f22dc8:	df0c                                    	movi.n	a15, 13
16f22dca:	0304024008e0d62e                  	{ ae_movad32.l	a2, aed1; movi	a3, 2 }
16f22dd2:	0d040f410ce0258e                  	{ addx4	a5, a5, a8; movi	a12, 15 }
16f22dda:	1a0404471c80655e                  	{ l32i	a5, a5, 0x1fc; movi	a10, 20 }
16f22de2:	22076a42006bfa2e                  	{ extui	a8, a2, 10, 15; ae_movda16	aed11, a10 }
16f22dea:	2207454200e718ee                  	{ ae_movda16	aed8, a8; ae_movda16	aed7, a5 }
16f22df2:	0506c5a00c0542ce                  	{ blti.w15	a2, 1, 16f22ea0 <sampler_to_d_calc+0x130>; and	a4, a5, a4 }
16f22dfa:	2283443334e8b13e                  	{ nop; nop; ae_mulf16ss.00	aed6, aed7, aed8 }
16f22e02:	230740c108e514ee                  	{ ae_movda32	aed5, a4; nop }
16f22e0a:	220760c10085565e                  	{ ae_sub32s	aed4, aed5, aed6; nop }
16f22e12:	230700c100e5d62e                  	{ ae_movad32.l	a2, aed4; nop }
16f22e1a:	e41c                                    	movi.n	a4, 30
16f22e1c:	2306804104ec446e                  	{ sub	a4, a4, a6; srai	a2, a2, 16 }

16f22e24 <sampler_to_d_calc+0xb4>:
16f22e24:	848d                                    	ae_sext16	a8, a4
16f22e26:	829d                                    	ae_sext16	a9, a2
16f22e28:	300769440c72e82e                  	{ addi	a2, a8, -15; ae_movda32	aed18, a9 }
16f22e30:	3007424310b1232e                  	{ ae_sraa32s	aed16, aed18, a3; ae_movda32	aed17, a2 }
16f22e38:	220720c104a5ff1e                  	{ ae_slaa32s	aed15, aed17, a15; nop }
16f22e40:	0d069fc400fcd6ee                  	{ ae_movad32.l	a14, aed16; ae_movad32.l	a13, aed15 }
16f22e48:	ddea                                    	add.n	a13, a13, a14
16f22e4a:	b0edd0                                    	addx8	a14, a13, a13
16f22e4d:	90eed0                                    	addx2	a14, a14, a13
16f22e50:	a0eed0                                    	addx4	a14, a14, a13
16f22e53:	11eec0                                    	slli	a14, a14, 4
16f22e56:	ddea                                    	add.n	a13, a13, a14
16f22e58:	11ddf0                                    	slli	a13, a13, 1
16f22e5b:	230740c310e51dee                  	{ ae_movda32	aed14, a13; nop }
16f22e63:	220720c314a55cee                  	{ ae_sraa32s	aed13, aed14, a12; nop }
16f22e6b:	220700c308e5dbbe                  	{ ae_movad16.0	a11, aed13; nop }
16f22e73:	220740c300e51bee                  	{ ae_movda16	aed12, a11; nop }
16f22e7b:	22834453356cb13e                  	{ nop; nop; ae_mulf16ss.00	aed10, aed11, aed12 }
16f22e83:	c90c                                    	movi.n	a9, 12
16f22e85:	0ead257b09440cd0c5808139040179af 	{ ae_sraa32rs	aed9, aed10, a9; nop; nop; nop }
16f22e95:	230700c208e5d62e                  	{ ae_movad32.l	a2, aed9; nop }
16f22e9d:	f01d                                    	retw.n

16f22e9f <sampler_to_d_calc+0x12f>:
	...

16f22ea0 <sampler_to_d_calc+0x130>:
16f22ea0:	040c                                    	movi.n	a4, 0
16f22ea2:	030400471c60ee7e                  	{ j	16f22e24 <sampler_to_d_calc+0xb4>; movi	a2, 0 }

16f22eaa <sampler_to_d_calc+0x13a>:
16f22eaa:	00000000 b3ce0000                                ......

16f22eb0 <sampler_to_d_calc+0x140>:
16f22eb0:	1b0464450c00b3ce                  	{ l32r	a12, 16f20bfc (ffffb000 <xthals_hw_configid0+0x3ffc1d7a>); movi	a11, 20 }
16f22eb8:	22074b4510f51cee                  	{ ae_movda16	aed22, a12; ae_movda16	aed21, a11 }
16f22ec0:	228344a336b6b13e                  	{ nop; nop; ae_mulf16ss.00	aed20, aed21, aed22 }
16f22ec8:	ca0c                                    	movi.n	a10, 12
16f22eca:	0ead257b09850cd0c58081390401fa4f 	{ ae_sraa32rs	aed19, aed20, a10; nop; nop; nop }
16f22eda:	230700c418e5d62e                  	{ ae_movad32.l	a2, aed19; nop }
16f22ee2:	f01d                                    	retw.n

16f22ee4 <util_calc_frame_size>:
16f22ee4:	004136                                    	entry	a1, 32
16f22ee7:	05b326                                    	beqi	a3, 16, 16f22ef0 <util_calc_frame_size+0xc>
16f22eea:	1122e0                                    	slli	a2, a2, 2
16f22eed:	f01d                                    	retw.n

16f22eef <util_calc_frame_size+0xb>:
	...

16f22ef0 <util_calc_frame_size+0xc>:
16f22ef0:	1122f0                                    	slli	a2, a2, 1
16f22ef3:	f01d                                    	retw.n

16f22ef5 <util_calc_frame_size+0x11>:
16f22ef5:	000000                                        ...

16f22ef8 <util_latency_ms2_byte_size>:
16f22ef8:	004136                                    	entry	a1, 32
16f22efb:	2206b24618eae44e                  	{ or	a11, a4, a4; or	a10, a2, a2 }
16f22f03:	1294e5                                    	call8	16f35850 <__mulsi3>
16f22f06:	e8a3b2                                    	movi	a11, 0x3e8
16f22f09:	12ab65                                    	call8	16f359c0 <__udivsi3>
16f22f0c:	20baa0                                    	or	a11, a10, a10
16f22f0f:	2206f3400c6a1bbe                  	{ addi	a11, a11, 1; or	a10, a3, a3 }
16f22f17:	1293a5                                    	call8	16f35850 <__mulsi3>
16f22f1a:	202aa0                                    	or	a2, a10, a10
16f22f1d:	000090                                    	retw

16f22f20 <util_latency_ms2_byte_size+0x28>:
16f22f20:	00000000 00000000                                ......

16f22f26 <util_latency_ms2_byte_size+0x2e>:
	...

16f22f28 <util_latency_ms>:
16f22f28:	004136                                    	entry	a1, 32
16f22f2b:	2206b34618eaf44e                  	{ or	a11, a4, a4; or	a10, a3, a3 }
16f22f33:	0020f0                                    	nop
16f22f36:	1291a5                                    	call8	16f35850 <__mulsi3>
16f22f39:	1182b0                                    	slli	a8, a2, 5
16f22f3c:	c08820                                    	sub	a8, a8, a2
16f22f3f:	a08820                                    	addx4	a8, a8, a2
16f22f42:	3b06ba4610aa08de                  	{ slli	a10, a8, 3; or	a11, a10, a10 }
16f22f4a:	12a765                                    	call8	16f359c0 <__udivsi3>
16f22f4d:	0a2d                                    	mov.n	a2, a10
16f22f4f:	f01d                                    	retw.n

16f22f51 <util_latency_ms+0x29>:
16f22f51:	000000                                        ...

16f22f54 <util_lr_linear_gain_process>:
16f22f54:	006136                                    	entry	a1, 48
16f22f57:	3d9567                                    	bne	a5, a6, 16f22f98 <util_lr_linear_gain_process+0x44>
16f22f5a:	2106c5200c0504ce                  	{ blti.w15	a4, 1, 16f23000 <util_lr_linear_gain_process+0xac>; slli	a6, a5, 16 }
16f22f62:	0306a44518b52f6e                  	{ srai	a7, a6, 31; addx2	a4, a4, a2 }

16f22f6a <util_lr_linear_gain_process+0x16>:
16f22f6a:	22ad                                    	ae_l16si.n	a10, a2, 0
16f22f6c:	07dd                                    	mov.n	a13, a7
16f22f6e:	0706b64618ab2fae                  	{ srai	a11, a10, 31; or	a12, a6, a6 }
16f22f76:	0952a5                                    	call8	16f2c4a0 <__muldi3>
16f22f79:	118bf0                                    	slli	a8, a11, 1
16f22f7c:	2202a2400080038e                  	{ s16i	a8, a3, 0; addi	a2, a2, 2 }
16f22f84:	2302e31a1fe0124e                  	{ bne.w15	a2, a4, 16f22f6a <util_lr_linear_gain_process+0x16>; addi	a3, a3, 2 }
16f22f8c:	f01d                                    	retw.n

16f22f8e <util_lr_linear_gain_process+0x3a>:
16f22f8e:	000000                                        ...

16f22f91 <util_lr_linear_gain_process+0x3d>:
16f22f91:	00000000 ce000000                                .......

16f22f98 <util_lr_linear_gain_process+0x44>:
16f22f98:	1006a6200c0624ce                  	{ blti.w15	a4, 1, 16f23000 <util_lr_linear_gain_process+0xac>; slli	a9, a6, 16 }
16f22fa0:	2106a5400885019e                  	{ s32i	a9, a1, 4; slli	a6, a5, 16 }
16f22fa8:	0504204608a03f9e                  	{ srai	a9, a9, 31; movi	a5, 0 }
16f22fb0:	3706af40008d019e                  	{ s32i	a9, a1, 0; srai	a7, a6, 31 }
16f22fb8:	22cd                                    	ae_l16si.n	a12, a2, 0
16f22fba:	1d068f00000fc50e                  	{ bbci.w15	a5, 0, 16f22fd8 <util_lr_linear_gain_process+0x84>; srai	a13, a12, 31 }
16f22fc2:	1a038140048001be                  	{ l32i	a11, a1, 0; l32i	a10, a1, 4 }
16f22fca:	094d65                                    	call8	16f2c4a0 <__muldi3>
16f22fcd:	0e068b4000671d1e                  	{ j	16f22fee <util_lr_linear_gain_process+0x9a>; slli	a12, a11, 1 }

16f22fd5 <util_lr_linear_gain_process+0x81>:
16f22fd5:	000000                                        ...

16f22fd8 <util_lr_linear_gain_process+0x84>:
16f22fd8:	3c06bd4610eafcce                  	{ or	a10, a12, a12; or	a11, a13, a13 }
16f22fe0:	0606b64708ebe77e                  	{ or	a13, a7, a7; or	a12, a6, a6 }
16f22fe8:	094b65                                    	call8	16f2c4a0 <__muldi3>
16f22feb:	11cbf0                                    	slli	a12, a11, 1
16f22fee:	222b                                    	addi.n	a2, a2, 2
16f22ff0:	1402a540008013ce                  	{ s16i	a12, a3, 0; addi	a5, a5, 1 }
16f22ff8:	2202c31a1fe0f45e                  	{ bne.w15	a4, a5, 16f22fb8 <util_lr_linear_gain_process+0x64>; addi	a3, a3, 2 }
16f23000:	f01d                                    	retw.n

16f23002 <util_lr_linear_gain_process+0xae>:
16f23002:	000000                                        ...

16f23005 <util_lr_linear_gain_process+0xb1>:
16f23005:	000000                                        ...

16f23008 <util_upmix_pcm_data>:
16f23008:	004136                                    	entry	a1, 32
16f2300b:	34b8                                    	l32i.n	a11, a4, 12
16f2300d:	881c                                    	movi.n	a8, 24
16f2300f:	6b1b87                                    	beq	a11, a8, 16f2307e <util_upmix_pcm_data+0x76>
16f23012:	15bb66                                    	bnei	a11, 16, 16f2302b <util_upmix_pcm_data+0x23>
16f23015:	2468                                    	l32i.n	a6, a4, 8
16f23017:	03dd                                    	mov.n	a13, a3
16f23019:	0e03a420000046ae                  	{ beqz.w15	a6, 16f23065 <util_upmix_pcm_data+0x5d>; l32i	a14, a4, 0 }
16f23021:	050c                                    	movi.n	a5, 0
16f23023:	0e0400400060190e                  	{ j	16f23030 <util_upmix_pcm_data+0x28>; movi	a15, 0 }

16f2302b <util_upmix_pcm_data+0x23>:
16f2302b:	f01d                                    	retw.n

16f2302d <util_upmix_pcm_data+0x25>:
16f2302d:	341657                                    	beq	a6, a5, 16f23065 <util_upmix_pcm_data+0x5d>
16f23030:	1402e53c07e0d2ae                  	{ beqz.w15	a2, 16f2302d <util_upmix_pcm_data+0x25>; addi	a5, a5, 1 }
16f23038:	44a8                                    	l32i.n	a10, a4, 16
16f2303a:	0d04404100a0228e                  	{ loopnez	a2, 16f23062 <util_upmix_pcm_data+0x5a>; movi	a12, 0 }
16f23042:	12bca7                                    	bgeu	a12, a10, 16f23058 <util_upmix_pcm_data+0x50>
16f23045:	4efd                                    	ae_l16ui.n	a15, a14, 0
16f23047:	2e02ae4000800dfe                  	{ s16i	a15, a13, 0; addi	a14, a14, 2 }
16f2304f:	2c028d4000601d0e                  	{ j	16f23060 <util_upmix_pcm_data+0x58>; addi	a13, a13, 2 }

16f23057 <util_upmix_pcm_data+0x4f>:
	...

16f23058 <util_upmix_pcm_data+0x50>:
16f23058:	2c02ad4000801dfe                  	{ s16i	a15, a13, 0; addi	a13, a13, 2 }
16f23060:	cc1b                                    	addi.n	a12, a12, 1

16f23062 <util_upmix_pcm_data+0x5a>:
16f23062:	fff1c6                                    	j	16f2302d <util_upmix_pcm_data+0x25>

16f23065 <util_upmix_pcm_data+0x5d>:
16f23065:	006432                                    	s32i	a3, a4, 0
16f23068:	2306b241008a042e                  	{ s32i	a2, a4, 16; or	a10, a2, a2 }
16f23070:	ffe725                                    	call8	16f22ee4 <util_calc_frame_size>
16f23073:	0224b2                                    	l32i	a11, a4, 8
16f23076:	127da5                                    	call8	16f35850 <__mulsi3>
16f23079:	0164a2                                    	s32i	a10, a4, 4
16f2307c:	f01d                                    	retw.n

16f2307e <util_upmix_pcm_data+0x76>:
16f2307e:	24c8                                    	l32i.n	a12, a4, 8
16f23080:	20a330                                    	or	a10, a3, a3
16f23083:	0020f0                                    	nop
16f23086:	0d03a42000005cae                  	{ beqz.w15	a12, 16f230d4 <util_upmix_pcm_data+0xcc>; l32i	a13, a4, 0 }
16f2308e:	00a0b2                                    	movi	a11, 0
16f23091:	04040021000072ee                  	{ bnez.w15	a2, 16f230a1 <util_upmix_pcm_data+0x99>; movi	a5, 0 }
16f23099:	551b                                    	addi.n	a5, a5, 1
16f2309b:	33b5c7                                    	bgeu	a5, a12, 16f230d2 <util_upmix_pcm_data+0xca>
16f2309e:	ff7216                                    	beqz	a2, 16f23099 <util_upmix_pcm_data+0x91>
16f230a1:	0d04404108a0228e                  	{ loopnez	a2, 16f230ca <util_upmix_pcm_data+0xc2>; movi	a12, 0 }
16f230a9:	4498                                    	l32i.n	a9, a4, 16
16f230ab:	11bc97                                    	bgeu	a12, a9, 16f230c0 <util_upmix_pcm_data+0xb8>
16f230ae:	0db8                                    	l32i.n	a11, a13, 0
16f230b0:	0d02ad4000811abe                  	{ s32i	a11, a10, 0; addi	a13, a13, 4 }
16f230b8:	0a028a4000610c0e                  	{ j	16f230c8 <util_upmix_pcm_data+0xc0>; addi	a10, a10, 4 }

16f230c0 <util_upmix_pcm_data+0xb8>:
16f230c0:	0b02aa4000810abe                  	{ s32i	a11, a10, 0; addi	a10, a10, 4 }
16f230c8:	cc1b                                    	addi.n	a12, a12, 1

16f230ca <util_upmix_pcm_data+0xc2>:
16f230ca:	2d0384471c60ebce                  	{ j	16f23099 <util_upmix_pcm_data+0x91>; l32i	a12, a4, 8 }

16f230d2 <util_upmix_pcm_data+0xca>:
16f230d2:	34b8                                    	l32i.n	a11, a4, 12
16f230d4:	006432                                    	s32i	a3, a4, 0
16f230d7:	2306b241008a042e                  	{ s32i	a2, a4, 16; or	a10, a2, a2 }
16f230df:	ffe065                                    	call8	16f22ee4 <util_calc_frame_size>
16f230e2:	0224b2                                    	l32i	a11, a4, 8
16f230e5:	1276a5                                    	call8	16f35850 <__mulsi3>
16f230e8:	0164a2                                    	s32i	a10, a4, 4
16f230eb:	f01d                                    	retw.n

16f230ed <util_upmix_pcm_data+0xe5>:
16f230ed:	000000                                        ...

16f230f0 <util_downmix_pcm_data>:
16f230f0:	004136                                    	entry	a1, 32
16f230f3:	34b8                                    	l32i.n	a11, a4, 12
16f230f5:	881c                                    	movi.n	a8, 24
16f230f7:	5e1b87                                    	beq	a11, a8, 16f23159 <util_downmix_pcm_data+0x69>
16f230fa:	15bb66                                    	bnei	a11, 16, 16f23113 <util_downmix_pcm_data+0x23>
16f230fd:	24f8                                    	l32i.n	a15, a4, 8
16f230ff:	03ad                                    	mov.n	a10, a3
16f23101:	0c0384240400dfae                  	{ beqz.w15	a15, 16f2313e <util_downmix_pcm_data+0x4e>; l32i	a13, a4, 0 }
16f23109:	0e0c                                    	movi.n	a14, 0
16f2310b:	0c0400400060060e                  	{ j	16f23115 <util_downmix_pcm_data+0x25>; movi	a12, 0 }

16f23113 <util_downmix_pcm_data+0x23>:
16f23113:	f01d                                    	retw.n

16f23115 <util_downmix_pcm_data+0x25>:
16f23115:	1f02ce4708a0028e                  	{ loopnez	a2, 16f23136 <util_downmix_pcm_data+0x46>; addi	a14, a14, 1 }
16f2311d:	11bc27                                    	bgeu	a12, a2, 16f23132 <util_downmix_pcm_data+0x42>
16f23120:	4d9d                                    	ae_l16ui.n	a9, a13, 0
16f23122:	2c02ad4000801a9e                  	{ s16i	a9, a10, 0; addi	a13, a13, 2 }
16f2312a:	2a028a400060060e                  	{ j	16f23134 <util_downmix_pcm_data+0x44>; addi	a10, a10, 2 }

16f23132 <util_downmix_pcm_data+0x42>:
16f23132:	dd2b                                    	addi.n	a13, a13, 2
16f23134:	cc1b                                    	addi.n	a12, a12, 1

16f23136 <util_downmix_pcm_data+0x46>:
16f23136:	0d04601e1be0cfee                  	{ bne.w15	a15, a14, 16f23115 <util_downmix_pcm_data+0x25>; movi	a12, 0 }

16f2313e <util_downmix_pcm_data+0x4e>:
16f2313e:	006432                                    	s32i	a3, a4, 0
16f23141:	2306b241008a042e                  	{ s32i	a2, a4, 16; or	a10, a2, a2 }
16f23149:	ffd9a5                                    	call8	16f22ee4 <util_calc_frame_size>
16f2314c:	0224b2                                    	l32i	a11, a4, 8
16f2314f:	127025                                    	call8	16f35850 <__mulsi3>
16f23152:	0164a2                                    	s32i	a10, a4, 4
16f23155:	f01d                                    	retw.n

16f23157 <util_downmix_pcm_data+0x67>:
	...

16f23159 <util_downmix_pcm_data+0x69>:
16f23159:	24c8                                    	l32i.n	a12, a4, 8
16f2315b:	03dd                                    	mov.n	a13, a3
16f2315d:	0b0384240400ecae                  	{ beqz.w15	a12, 16f231a0 <util_downmix_pcm_data+0xb0>; l32i	a10, a4, 0 }
16f23165:	0e040021000062ee                  	{ bnez.w15	a2, 16f23175 <util_downmix_pcm_data+0x85>; movi	a14, 0 }
16f2316d:	ee1b                                    	addi.n	a14, a14, 1
16f2316f:	2bbec7                                    	bgeu	a14, a12, 16f2319e <util_downmix_pcm_data+0xae>
16f23172:	ff7216                                    	beqz	a2, 16f2316d <util_downmix_pcm_data+0x7d>
16f23175:	0d04404708a0028e                  	{ loopnez	a2, 16f23196 <util_downmix_pcm_data+0xa6>; movi	a12, 0 }
16f2317d:	11bc27                                    	bgeu	a12, a2, 16f23192 <util_downmix_pcm_data+0xa2>
16f23180:	0ab8                                    	l32i.n	a11, a10, 0
16f23182:	0b02aa4000810dbe                  	{ s32i	a11, a13, 0; addi	a10, a10, 4 }
16f2318a:	0c028d400061160e                  	{ j	16f23194 <util_downmix_pcm_data+0xa4>; addi	a13, a13, 4 }

16f23192 <util_downmix_pcm_data+0xa2>:
16f23192:	aa4b                                    	addi.n	a10, a10, 4
16f23194:	cc1b                                    	addi.n	a12, a12, 1

16f23196 <util_downmix_pcm_data+0xa6>:
16f23196:	2d0384471c60e3de                  	{ j	16f2316d <util_downmix_pcm_data+0x7d>; l32i	a12, a4, 8 }

16f2319e <util_downmix_pcm_data+0xae>:
16f2319e:	34b8                                    	l32i.n	a11, a4, 12
16f231a0:	006432                                    	s32i	a3, a4, 0
16f231a3:	2306b241008a042e                  	{ s32i	a2, a4, 16; or	a10, a2, a2 }
16f231ab:	ffd3a5                                    	call8	16f22ee4 <util_calc_frame_size>
16f231ae:	0224b2                                    	l32i	a11, a4, 8
16f231b1:	1269e5                                    	call8	16f35850 <__mulsi3>
16f231b4:	0164a2                                    	s32i	a10, a4, 4
16f231b7:	f01d                                    	retw.n

16f231b9 <util_downmix_pcm_data+0xc9>:
16f231b9:	000000                                        ...

16f231bc <util_unify_bit_depth_pcm_data>:
16f231bc:	004136                                    	entry	a1, 32
16f231bf:	2a03a44508e0e22e                  	{ or	a5, a2, a2; l32i	a10, a4, 8 }
16f231c7:	0a03c4400881182e                  	{ movi	a2, 24; l32i	a11, a4, 16 }
16f231cf:	0020f0                                    	nop
16f231d2:	1267e5                                    	call8	16f35850 <__mulsi3>
16f231d5:	230700a61c25b50e                  	{ beqi.w15	a5, 16, 16f23310 <util_unify_bit_depth_pcm_data+0x154>; nop }

16f231dd <util_unify_bit_depth_pcm_data+0x21>:
16f231dd:	220700821c25752e                  	{ bne.w15	a5, a2, 16f2330d <util_unify_bit_depth_pcm_data+0x151>; nop }
16f231e5:	3488                                    	l32i.n	a8, a4, 12
16f231e7:	039d                                    	mov.n	a9, a3
16f231e9:	0a0384221c20186e                  	{ bnei.w15	a8, 16, 16f2330d <util_unify_bit_depth_pcm_data+0x151>; l32i	a11, a4, 0 }
16f231f1:	0a02002000334aae                  	{ beqz.w15	a10, 16f232fd <util_unify_bit_depth_pcm_data+0x141>; extui	a12, a10, 0, 3 }
16f231f9:	2b06d3c510b60c8e                  	{ loopnez	a12, 16f23213 <util_unify_bit_depth_pcm_data+0x57>; srli	a10, a10, 3 }
16f23201:	4bdd                                    	ae_l16ui.n	a13, a11, 0
16f23203:	2b02ab4708a01d0e                  	{ slli	a13, a13, 16; addi	a11, a11, 2 }

16f2320b <util_unify_bit_depth_pcm_data+0x4f>:
16f2320b:	0902a940008119de                  	{ s32i	a13, a9, 0; addi	a9, a9, 4 }

16f23213 <util_unify_bit_depth_pcm_data+0x57>:
16f23213:	0e6a16                                    	beqz	a10, 16f232fd <util_unify_bit_depth_pcm_data+0x141>
16f23216:	041b82                                    	l16ui	a8, a11, 8
16f23219:	2d031b4000801bfe                  	{ l16ui	a15, a11, 0; l16ui	a13, a11, 4 }
16f23221:	3d031b4108800b2e                  	{ l16ui	a2, a11, 10; l16ui	a12, a11, 6 }
16f23229:	1f033b4600a0080e                  	{ slli	a8, a8, 16; l16ui	a14, a11, 2 }
16f23231:	1106ad4718a70f0e                  	{ slli	a15, a15, 16; slli	a13, a13, 16 }
16f23239:	0106ac40108709de                  	{ s32i	a13, a9, 8; slli	a12, a12, 16 }
16f23241:	2106ae40188709ce                  	{ s32i	a12, a9, 12; slli	a14, a14, 16 }
16f23249:	2106a240088409ee                  	{ s32i	a14, a9, 4; slli	a2, a2, 16 }
16f23251:	2f033b410881092e                  	{ s32i	a2, a9, 20; l16ui	a14, a11, 12 }

16f23259 <util_unify_bit_depth_pcm_data+0x9d>:
16f23259:	3f033b40008119fe                  	{ s32i	a15, a9, 0; l16ui	a15, a11, 14 }
16f23261:	3302aac1009f098e                  	{ s32i	a8, a9, 16; addi	a2, a10, -1 }
16f23269:	2806f944046a1b8e                  	{ addi	a8, a11, 16; or	a10, a9, a9 }
16f23271:	2106ae4618a70f0e                  	{ slli	a11, a15, 16; slli	a14, a14, 16 }
16f23279:	1f06de4300aa628e                  	{ loopnez	a2, 16f232e9 <util_unify_bit_depth_pcm_data+0x12d>; or	a9, a14, a14 }
16f23281:	0903384110801a9e                  	{ s32i	a9, a10, 24; l16ui	a9, a8, 0 }
16f23289:	1b03384118801abe                  	{ s32i	a11, a10, 28; l16ui	a11, a8, 2 }
16f23291:	0b028a40108808ce                  	{ l16ui	a12, a8, 4; addi	a10, a10, 32 }
16f23299:	3d03384608a0190e                  	{ slli	a9, a9, 16; l16ui	a13, a8, 6 }
16f232a1:	0f03384618a10b0e                  	{ slli	a11, a11, 16; l16ui	a14, a8, 8 }
16f232a9:	1f03384700a11c0e                  	{ slli	a12, a12, 16; l16ui	a15, a8, 10 }
16f232b1:	2903384000811a9e                  	{ s32i	a9, a10, 0; l16ui	a9, a8, 12 }
16f232b9:	3303384708a10d0e                  	{ slli	a13, a13, 16; l16ui	a2, a8, 14 }
16f232c1:	3106ae4008860abe                  	{ s32i	a11, a10, 4; slli	a11, a14, 16 }
16f232c9:	0106af4010870ace                  	{ s32i	a12, a10, 8; slli	a12, a15, 16 }
16f232d1:	1106a94018860ade                  	{ s32i	a13, a10, 12; slli	a9, a9, 16 }
16f232d9:	3106a24100860abe                  	{ s32i	a11, a10, 16; slli	a11, a2, 16 }
16f232e1:	0902a84108840ace                  	{ s32i	a12, a10, 20; addi	a8, a8, 16 }

16f232e9 <util_unify_bit_depth_pcm_data+0x12d>:
16f232e9:	6a99                                    	s32i.n	a9, a10, 24
16f232eb:	7ab9                                    	s32i.n	a11, a10, 28
16f232ed:	1488                                    	l32i.n	a8, a4, 4
16f232ef:	0439                                    	s32i.n	a3, a4, 0
16f232f1:	0f06a8401886145e                  	{ s32i	a5, a4, 12; slli	a8, a8, 1 }
16f232f9:	1489                                    	s32i.n	a8, a4, 4
16f232fb:	f01d                                    	retw.n

16f232fd <util_unify_bit_depth_pcm_data+0x141>:
16f232fd:	1488                                    	l32i.n	a8, a4, 4
16f232ff:	0439                                    	s32i.n	a3, a4, 0
16f23301:	0f06a8401886145e                  	{ s32i	a5, a4, 12; slli	a8, a8, 1 }
16f23309:	1489                                    	s32i.n	a8, a4, 4
16f2330b:	f01d                                    	retw.n

16f2330d <util_unify_bit_depth_pcm_data+0x151>:
16f2330d:	f01d                                    	retw.n

16f2330f <util_unify_bit_depth_pcm_data+0x153>:
	...

16f23310 <util_unify_bit_depth_pcm_data+0x154>:
16f23310:	3498                                    	l32i.n	a9, a4, 12
16f23312:	0b03e41e1bc0392e                  	{ bne.w15	a9, a2, 16f231dd <util_unify_bit_depth_pcm_data+0x21>; l32i	a11, a4, 0 }
16f2331a:	13069324002a9aae                  	{ beqz.w15	a10, 16f23431 <util_unify_bit_depth_pcm_data+0x275>; or	a9, a3, a3 }
16f23322:	24c0a0                                    	extui	a12, a10, 0, 3
16f23325:	2b06d3c510b60c8e                  	{ loopnez	a12, 16f2333f <util_unify_bit_depth_pcm_data+0x183>; srli	a10, a10, 3 }
16f2332d:	0bd8                                    	l32i.n	a13, a11, 0
16f2332f:	0b02eb470861f0de                  	{ extui	a13, a13, 16, 16; addi	a11, a11, 4 }

16f23337 <util_unify_bit_depth_pcm_data+0x17b>:
16f23337:	2802a940008019de                  	{ s16i	a13, a9, 0; addi	a9, a9, 2 }

16f2333f <util_unify_bit_depth_pcm_data+0x183>:
16f2333f:	0eea16                                    	beqz	a10, 16f23431 <util_unify_bit_depth_pcm_data+0x275>
16f23342:	042b82                                    	l32i	a8, a11, 16
16f23345:	0e038b4014801bde                  	{ l32i	a13, a11, 8; l32i	a15, a11, 0 }
16f2334d:	3c038b410c800b2e                  	{ l32i	a2, a11, 20; l32i	a12, a11, 12 }
16f23355:	1f03eb460060e08e                  	{ extui	a8, a8, 16, 16; l32i	a14, a11, 4 }
16f2335d:	1d0270c7187ff0fe                  	{ extui	a15, a15, 16, 16; extui	a13, a13, 16, 16 }
16f23365:	0c0230c0109f09de                  	{ s16i	a13, a9, 4; extui	a12, a12, 16, 16 }
16f2336d:	2e0230c0189f09ce                  	{ s16i	a12, a9, 6; extui	a14, a14, 16, 16 }
16f23375:	220230c0089c09ee                  	{ s16i	a14, a9, 2; extui	a2, a2, 16, 16 }
16f2337d:	2e03ab410881092e                  	{ s16i	a2, a9, 10; l32i	a14, a11, 24 }

16f23385 <util_unify_bit_depth_pcm_data+0x1c9>:
16f23385:	3e03ab40008119fe                  	{ s16i	a15, a9, 0; l32i	a15, a11, 28 }
16f2338d:	3202aac1009f098e                  	{ s16i	a8, a9, 8; addi	a2, a10, -1 }
16f23395:	2806f940046a3b8e                  	{ addi	a8, a11, 32; or	a10, a9, a9 }
16f2339d:	2f0270c6187fe0fe                  	{ extui	a11, a15, 16, 16; extui	a14, a14, 16, 16 }
16f233a5:	0020f0                                    	nop
16f233a8:	1f06de4300aa628e                  	{ loopnez	a2, 16f23418 <util_unify_bit_depth_pcm_data+0x25c>; or	a9, a14, a14 }
16f233b0:	0803a84110801a9e                  	{ s16i	a9, a10, 12; l32i	a9, a8, 0 }
16f233b8:	1a03a84118801abe                  	{ s16i	a11, a10, 14; l32i	a11, a8, 4 }
16f233c0:	0a028a40148408ce                  	{ l32i	a12, a8, 8; addi	a10, a10, 16 }
16f233c8:	3d03e8460860f09e                  	{ extui	a9, a9, 16, 16; l32i	a13, a8, 12 }
16f233d0:	0f03e8461861e0be                  	{ extui	a11, a11, 16, 16; l32i	a14, a8, 16 }
16f233d8:	1f03e8470061f0ce                  	{ extui	a12, a12, 16, 16; l32i	a15, a8, 20 }
16f233e0:	2803a84000811a9e                  	{ s16i	a9, a10, 0; l32i	a9, a8, 24 }
16f233e8:	3303e8470861e0de                  	{ extui	a13, a13, 16, 16; l32i	a2, a8, 28 }
16f233f0:	3e0230c0089e0abe                  	{ s16i	a11, a10, 2; extui	a11, a14, 16, 16 }
16f233f8:	0e0230c0109f1ace                  	{ s16i	a12, a10, 4; extui	a12, a15, 16, 16 }
16f23400:	180230c0189e1ade                  	{ s16i	a13, a10, 6; extui	a9, a9, 16, 16 }
16f23408:	320230c1009e0abe                  	{ s16i	a11, a10, 8; extui	a11, a2, 16, 16 }
16f23410:	0802a84108880ace                  	{ s16i	a12, a10, 10; addi	a8, a8, 32 }

16f23418 <util_unify_bit_depth_pcm_data+0x25c>:
16f23418:	1803a44110800a9e                  	{ s16i	a9, a10, 12; l32i	a8, a4, 4 }
16f23420:	075ab2                                    	s16i	a11, a10, 14
16f23423:	0439                                    	s32i.n	a3, a4, 0
16f23425:	0906b1c01896045e                  	{ s32i	a5, a4, 12; srli	a8, a8, 1 }
16f2342d:	1489                                    	s32i.n	a8, a4, 4
16f2342f:	f01d                                    	retw.n

16f23431 <util_unify_bit_depth_pcm_data+0x275>:
16f23431:	1488                                    	l32i.n	a8, a4, 4
16f23433:	0439                                    	s32i.n	a3, a4, 0
16f23435:	0906b1c01896045e                  	{ s32i	a5, a4, 12; srli	a8, a8, 1 }
16f2343d:	1489                                    	s32i.n	a8, a4, 4
16f2343f:	f01d                                    	retw.n

16f23441 <util_unify_bit_depth_pcm_data+0x285>:
16f23441:	000000                                        ...

16f23444 <utils_gain_balance_coef>:
16f23444:	004136                                    	entry	a1, 32
16f23447:	01d416                                    	beqz	a4, 16f23468 <utils_gain_balance_coef+0x24>
16f2344a:	022496                                    	bltz	a4, 16f23470 <utils_gain_balance_coef+0x2c>
16f2344d:	32a0b2                                    	movi	a11, 50
16f23450:	0b0382421ce04b4e                  	{ sub	a11, a11, a4; l32i	a10, a2, 0 }
16f23458:	123f65                                    	call8	16f35850 <__mulsi3>
16f2345b:	32a0b2                                    	movi	a11, 50
16f2345e:	125625                                    	call8	16f359c0 <__udivsi3>
16f23461:	02a9                                    	s32i.n	a10, a2, 0
16f23463:	f01d                                    	retw.n

16f23465 <utils_gain_balance_coef+0x21>:
16f23465:	000000                                        ...

16f23468 <utils_gain_balance_coef+0x24>:
16f23468:	f01d                                    	retw.n

16f2346a <utils_gain_balance_coef+0x26>:
16f2346a:	00000000 13ae0000                                ......

16f23470 <utils_gain_balance_coef+0x2c>:
16f23470:	2a028440048c13ae                  	{ l32i	a10, a3, 0; addi	a11, a4, 50 }
16f23478:	123d65                                    	call8	16f35850 <__mulsi3>
16f2347b:	32a0b2                                    	movi	a11, 50
16f2347e:	125425                                    	call8	16f359c0 <__udivsi3>
16f23481:	0063a2                                    	s32i	a10, a3, 0
16f23484:	000090                                    	retw

16f23487 <utils_gain_balance_coef+0x43>:
16f23487:	000000                                        ...

16f2348a <utils_gain_balance_coef+0x46>:
	...

16f2348c <util_lr_gain_process>:
16f2348c:	006136                                    	entry	a1, 48
16f2348f:	060c                                    	movi.n	a6, 0
16f23491:	1169                                    	s32i.n	a6, a1, 4
16f23493:	170428400080016e                  	{ s32i	a6, a1, 0; movi	a6, 24 }
16f2349b:	0a038240148112ae                  	{ l32i	a10, a2, 8; l32i	a11, a2, 16 }
16f234a3:	123ae5                                    	call8	16f35850 <__mulsi3>
16f234a6:	0e0394400481048e                  	{ l32i	a8, a4, 0; l8ui	a14, a4, 4 }
16f234ae:	1c04414200801bbe                  	{ movi	a11, 139; movi	a13, 17 }
16f234b6:	2604224508e1faae                  	{ or	a5, a10, a10; movi	a7, 98 }
16f234be:	3a03c4240c20c80e                  	{ beqi.w15	a8, 1, 16f2367b <util_lr_gain_process+0x1ef>; l32i	a10, a4, 12 }
16f234c6:	f5ce61                                    	l32r	a6, 16f20c00 (16f363cc <xtos_interrupt_mask_table+0x54>)
16f234c9:	79a0c2                                    	movi	a12, 121
16f234cc:	0e028685081ebcee                  	{ bgeu.w15	a12, a14, 16f234e5 <util_lr_gain_process+0x59>; addi	a15, a6, -8 }
16f234d4:	87ce92                                    	addi	a9, a14, -121
16f234d7:	0abd97                                    	bgeu	a13, a9, 16f234e5 <util_lr_gain_process+0x59>
16f234da:	1a038640007f051e                  	{ j	16f234f3 <util_lr_gain_process+0x67>; l32i	a10, a6, 0x1f4 }

16f234e2 <util_lr_gain_process+0x56>:
16f234e2:	000000                                        ...

16f234e5 <util_lr_gain_process+0x59>:
16f234e5:	c0ebe0                                    	sub	a14, a11, a14
16f234e8:	220700810c2517ee                  	{ bgeu.w15	a7, a14, 16f2360c <util_lr_gain_process+0x180>; nop }
16f234f0:	e026a2                                    	l32i	a10, a6, 0x380

16f234f3 <util_lr_gain_process+0x67>:
16f234f3:	01a9                                    	s32i.n	a10, a1, 0
16f234f5:	0804e2                                    	l8ui	a14, a4, 8
16f234f8:	44a8                                    	l32i.n	a10, a4, 16
16f234fa:	3f069b05081aacee                  	{ bgeu.w15	a12, a14, 16f23515 <util_lr_gain_process+0x89>; sub	a11, a11, a14 }
16f23502:	87cec2                                    	addi	a12, a14, -121
16f23505:	0cbdc7                                    	bgeu	a13, a12, 16f23515 <util_lr_gain_process+0x89>
16f23508:	1a038640007f041e                  	{ j	16f23520 <util_lr_gain_process+0x94>; l32i	a10, a6, 0x1f4 }

16f23510 <util_lr_gain_process+0x84>:
16f23510:	00000000 25d7be00                                .....

16f23515 <util_lr_gain_process+0x89>:
16f23515:	220700810c25d7be                  	{ bgeu.w15	a7, a11, 16f23651 <util_lr_gain_process+0x1c5>; nop }
16f2351d:	e026a2                                    	l32i	a10, a6, 0x380

16f23520 <util_lr_gain_process+0x94>:
16f23520:	0b02a140088111ae                  	{ s32i	a10, a1, 4; addi	a11, a1, 4 }
16f23528:	2006b14700eaf33e                  	{ or	a12, a3, a3; or	a10, a1, a1 }
16f23530:	fff125                                    	call8	16f23444 <utils_gain_balance_coef>
16f23533:	3c0386c0048311ae                  	{ l32i	a10, a1, 0; l32i	a13, a6, 0x23c }
16f2353b:	1e03810218006ade                  	{ bne.w15	a10, a13, 16f2354b <util_lr_gain_process+0xbf>; l32i	a14, a1, 4 }
16f23543:	2307608408051ede                  	{ beq.w15	a14, a13, 16f2360a <util_lr_gain_process+0x17e>; nop }
16f2354b:	32b8                                    	l32i.n	a11, a2, 12
16f2354d:	7e1c                                    	movi.n	a14, 23
16f2354f:	1f0428261c20db0e                  	{ beqi.w15	a11, 16, 16f236ce <util_lr_gain_process+0x242>; movi	a15, 24 }
16f23557:	230740861c057bfe                  	{ bne.w15	a11, a15, 16f2360a <util_lr_gain_process+0x17e>; nop }
16f2355f:	1148                                    	l32i.n	a4, a1, 4
16f23561:	f5a831                                    	l32r	a3, 16f20c04 (7fffff <xthals_release_major+0x7fc94f>)
16f23564:	02b8                                    	l32i.n	a11, a2, 0
16f23566:	3d028586185f44ae                  	{ bne.w15	a4, a10, 16f23775 <util_lr_gain_process+0x2e9>; addi	a12, a5, -1 }
16f2356e:	31074a4510a0858e                  	{ loopnez	a5, 16f23608 <util_lr_gain_process+0x17c>; ae_movda32	aed0, a10 }
16f23576:	0d038b200400aaae                  	{ beqz.w15	a10, 16f235b0 <util_lr_gain_process+0x124>; l32i	a12, a11, 0 }
16f2357e:	363da7                                    	bltu	a13, a10, 16f235b8 <util_lr_gain_process+0x12c>
16f23581:	230740c008e51cee                  	{ ae_movda32	aed1, a12; nop }
16f23589:	1a83550b3420b13e                  	{ nop; nop; ae_mul32.ll	aed1, aed1, aed0 }
16f23591:	0ead257b09040cd0c58081390c014e1f 	{ ae_sraa64	aed1, aed1, a14; nop; nop; nop }
16f235a1:	080691c0007c1b5e                  	{ j	16f23600 <util_lr_gain_process+0x174>; ae_movad32.l	a9, aed1 }

16f235a9 <util_lr_gain_process+0x11d>:
16f235a9:	00000000 4e000000                                .......

16f235b0 <util_lr_gain_process+0x124>:
16f235b0:	0804004000601c4e                  	{ j	16f23600 <util_lr_gain_process+0x174>; movi	a9, 0 }

16f235b8 <util_lr_gain_process+0x12c>:
16f235b8:	4198c0                                    	srli	a9, a12, 8
16f235bb:	230740c010e519ee                  	{ ae_movda32	aed2, a9; nop }
16f235c3:	1a8355133440b13e                  	{ nop; nop; ae_mul32.ll	aed2, aed2, aed0 }
16f235cb:	f03d                                    	nop.n
16f235cd:	0ead257b09040cd0c58081390c018e2f 	{ ae_sraa64	aed2, aed2, a14; nop; nop; nop }
16f235dd:	230700c010e5d69e                  	{ ae_movad32.l	a9, aed2; nop }
16f235e5:	f03d                                    	nop.n
16f235e7:	0020f0                                    	nop
16f235ea:	3906af4600af379e                  	{ srai	a8, a9, 23; srai	a15, a9, 31 }

16f235f2 <util_lr_gain_process+0x166>:
16f235f2:	09069f431cfa6f3e                  	{ xor	a15, a15, a3; sub	a8, a15, a8 }
16f235fa:	939f80                                    	movnez	a9, a15, a8
16f235fd:	119980                                    	slli	a9, a9, 8

16f23600 <util_lr_gain_process+0x174>:
16f23600:	0b02ab4000811b9e                  	{ s32i	a9, a11, 0; addi	a11, a11, 4 }

16f23608 <util_lr_gain_process+0x17c>:
16f23608:	f01d                                    	retw.n

16f2360a <util_lr_gain_process+0x17e>:
16f2360a:	f01d                                    	retw.n

16f2360c <util_lr_gain_process+0x180>:
16f2360c:	a0eef0                                    	addx4	a14, a14, a15
16f2360f:	3803ce24047f7aae                  	{ beqz.w15	a10, 16f239c0 <util_lr_gain_process+0x534>; l32i	a9, a14, 0x1fc }
16f23617:	2199                                    	s32i.n	a9, a1, 8
16f23619:	230740a40c659ace                  	{ blti.w15	a10, 1, 16f239d0 <util_lr_gain_process+0x544>; nop }
16f23621:	7e2eb2                                    	l32i	a11, a14, 0x1f8
16f23624:	0020f0                                    	nop
16f23627:	c0bb90                                    	sub	a11, a11, a9
16f2362a:	0020f0                                    	nop
16f2362d:	122225                                    	call8	16f35850 <__mulsi3>

16f23630 <util_lr_gain_process+0x1a4>:
16f23630:	2a0693c0149701ae                  	{ l32i	a10, a1, 8; srli	a14, a10, 3 }
16f23638:	3c04494200810bbe                  	{ movi	a11, 139; movi	a12, 121 }
16f23640:	1c0461451c00b2fe                  	{ l32r	a15, 16f20c08 (16f363c4 <xtos_interrupt_mask_table+0x4c>); movi	a13, 17 }
16f23648:	2f068a471472e7ae                  	{ j	16f234f3 <util_lr_gain_process+0x67>; add	a10, a10, a14 }

16f23650 <util_lr_gain_process+0x1c4>:
	...

16f23651 <util_lr_gain_process+0x1c5>:
16f23651:	a0bbf0                                    	addx4	a11, a11, a15
16f23654:	3403ab20047f8aae                  	{ beqz.w15	a10, 16f239c8 <util_lr_gain_process+0x53c>; l32i	a4, a11, 0x1fc }
16f2365c:	220740a00c651ace                  	{ blti.w15	a10, 1, 16f23a00 <util_lr_gain_process+0x574>; nop }
16f23664:	7e2bb2                                    	l32i	a11, a11, 0x1f8
16f23667:	c0bb40                                    	sub	a11, a11, a4
16f2366a:	121e65                                    	call8	16f35850 <__mulsi3>
16f2366d:	41a3a0                                    	srli	a10, a10, 3
16f23670:	2b0684471472ecae                  	{ j	16f23520 <util_lr_gain_process+0x94>; add	a10, a4, a10 }

16f23678 <util_lr_gain_process+0x1ec>:
16f23678:	000000                                        ...

16f2367b <util_lr_gain_process+0x1ef>:
16f2367b:	0322a2                                    	l32i	a10, a2, 12
16f2367e:	230740a21865fa0e                  	{ beqi.w15	a10, 16, 16f23a20 <util_lr_gain_process+0x594>; nop }
16f23686:	809a67                                    	bne	a10, a6, 16f2360a <util_lr_gain_process+0x17e>
16f23689:	0a030440108114ae                  	{ l16si	a10, a4, 4; l16si	a11, a4, 8 }
16f23691:	0303e20618608bae                  	{ bne.w15	a11, a10, 16f23a68 <util_lr_gain_process+0x5dc>; l32i	a2, a2, 0 }
16f23699:	220720bc0fe575ce                  	{ blti.w15	a5, 1, 16f2360a <util_lr_gain_process+0x17e>; nop }
16f236a1:	114a00                                    	slli	a4, a10, 16
16f236a4:	25068f401ced252e                  	{ addx4	a3, a5, a2; srai	a6, a4, 31 }
16f236ac:	0022a2                                    	l32i	a10, a2, 0
16f236af:	20d660                                    	or	a13, a6, a6
16f236b2:	0506b44618ab2fae                  	{ srai	a11, a10, 31; or	a12, a4, a4 }
16f236ba:	08de65                                    	call8	16f2c4a0 <__muldi3>
16f236bd:	11bbf0                                    	slli	a11, a11, 1

16f236c0 <util_lr_gain_process+0x234>:
16f236c0:	0302a240008102be                  	{ s32i	a11, a2, 0; addi	a2, a2, 4 }
16f236c8:	e09237                                    	bne	a2, a3, 16f236ac <util_lr_gain_process+0x220>
16f236cb:	f01d                                    	retw.n

16f236cd <util_lr_gain_process+0x241>:
	...

16f236ce <util_lr_gain_process+0x242>:
16f236ce:	1148                                    	l32i.n	a4, a1, 4
16f236d0:	f54531                                    	l32r	a3, 16f20be4 (7fff <xthals_release_major+0x494f>)
16f236d3:	02b8                                    	l32i.n	a11, a2, 0
16f236d5:	3c02e582183fe4ae                  	{ bne.w15	a4, a10, 16f238b5 <util_lr_gain_process+0x429>; addi	a12, a5, -1 }
16f236dd:	31074a4118a0858e                  	{ loopnez	a5, 16f23768 <util_lr_gain_process+0x2dc>; ae_movda32	aed0, a10 }
16f236e5:	0d030b240400aaae                  	{ beqz.w15	a10, 16f23720 <util_lr_gain_process+0x294>; l16si	a12, a11, 0 }
16f236ed:	23070c070c01bdae                  	{ bltu.w15	a13, a10, 16f23728 <util_lr_gain_process+0x29c>; ae_movda16	aed1, a12 }
16f236f5:	1a834f1b3401b13e                  	{ nop; nop; ae_mul32x16.l0	aed3, aed0, aed1 }
16f236fd:	0ead257b09040cd0c58081390c01ce3f 	{ ae_sraa64	aed3, aed3, a14; nop; nop; nop }
16f2370d:	000003ed0b0000fcb6a3a300206004ff 	{ j	16f23760 <util_lr_gain_process+0x2d4>; ae_movad16.0	a9, aed3; nop }

16f2371d <util_lr_gain_process+0x291>:
16f2371d:	000000                                        ...

16f23720 <util_lr_gain_process+0x294>:
16f23720:	0804004000601c3e                  	{ j	16f23760 <util_lr_gain_process+0x2d4>; movi	a9, 0 }

16f23728 <util_lr_gain_process+0x29c>:
16f23728:	1a834f233401b13e                  	{ nop; nop; ae_mul32x16.l0	aed4, aed0, aed1 }
16f23730:	f03d                                    	nop.n
16f23732:	0ead257b09240cd0c58081390c010e4f 	{ ae_sraa64	aed4, aed4, a14; nop; nop; nop }
16f23742:	230700c100e5d69e                  	{ ae_movad32.l	a9, aed4; nop }
16f2374a:	0020f0                                    	nop
16f2374d:	0906af4318af3f9e                  	{ srai	a15, a9, 15; srai	a12, a9, 31 }

16f23755 <util_lr_gain_process+0x2c9>:
16f23755:	3f069c4304fb7c3e                  	{ xor	a12, a12, a3; sub	a15, a12, a15 }
16f2375d:	939cf0                                    	movnez	a9, a12, a15

16f23760 <util_lr_gain_process+0x2d4>:
16f23760:	2a02ab4000801b9e                  	{ s16i	a9, a11, 0; addi	a11, a11, 2 }

16f23768 <util_lr_gain_process+0x2dc>:
16f23768:	f01d                                    	retw.n

16f2376a <util_lr_gain_process+0x2de>:
	...

16f23775 <util_lr_gain_process+0x2e9>:
16f23775:	230740c010e514ee                  	{ ae_movda32	aed2, a4; nop }
16f2377d:	31072a4318e0647e                  	{ nop; ae_movda32	aed0, a10 }

16f23785 <util_lr_gain_process+0x2f9>:
16f23785:	11f516                                    	beqz	a5, 16f238a8 <util_lr_gain_process+0x41c>
16f23788:	179576                                    	loopnez	a5, 16f237a3 <util_lr_gain_process+0x317>
16f2378b:	030150                                    	rsr.lend	a5
16f2378e:	130050                                    	wsr.lbeg	a5
16f23791:	05c552                                    	addi	a5, a5, 5
16f23794:	01d552                                    	addmi	a5, a5, 0x100
16f23797:	130150                                    	wsr.lend	a5
16f2379a:	002000                                    	isync
16f2379d:	030250                                    	rsr.lcount	a5
16f237a0:	01c552                                    	addi	a5, a5, 1
16f237a3:	0f03ab040400fc0e                  	{ bbci.w15	a12, 0, 16f23826 <util_lr_gain_process+0x39a>; l32i	a15, a11, 0 }
16f237ab:	0804002004007aae                  	{ beqz.w15	a10, 16f237db <util_lr_gain_process+0x34f>; movi	a9, 0 }
16f237b3:	30070f070c054dae                  	{ bltu.w15	a13, a10, 16f237e0 <util_lr_gain_process+0x354>; ae_movda32	aed5, a15 }
16f237bb:	1a83552b34a0b13e                  	{ nop; nop; ae_mul32.ll	aed5, aed5, aed0 }
16f237c3:	0ead257b09240cd0c58081390c014e5f 	{ ae_sraa64	aed5, aed5, a14; nop; nop; nop }
16f237d3:	080695c0007c1a4e                  	{ j	16f23821 <util_lr_gain_process+0x395>; ae_movad32.l	a9, aed5 }

16f237db <util_lr_gain_process+0x34f>:
16f237db:	001086                                    	j	16f23821 <util_lr_gain_process+0x395>

16f237de <util_lr_gain_process+0x352>:
	...

16f237e0 <util_lr_gain_process+0x354>:
16f237e0:	4198f0                                    	srli	a9, a15, 8
16f237e3:	230740c110e519ee                  	{ ae_movda32	aed6, a9; nop }
16f237eb:	1a83553334c0b13e                  	{ nop; nop; ae_mul32.ll	aed6, aed6, aed0 }
16f237f3:	0ead257b09240cd0c58081390c018e6f 	{ ae_sraa64	aed6, aed6, a14; nop; nop; nop }
16f23803:	230700c110e5d69e                  	{ ae_movad32.l	a9, aed6; nop }
16f2380b:	2906af4600ac379e                  	{ srai	a8, a9, 23; srai	a2, a9, 31 }
16f23813:	0906924014fa623e                  	{ xor	a2, a2, a3; sub	a8, a2, a8 }
16f2381b:	939280                                    	movnez	a9, a2, a8
16f2381e:	119980                                    	slli	a9, a9, 8
16f23821:	0b99                                    	s32i.n	a9, a11, 0
16f23823:	001e46                                    	j	16f238a0 <util_lr_gain_process+0x414>

16f23826 <util_lr_gain_process+0x39a>:
16f23826:	08040020040074ae                  	{ beqz.w15	a4, 16f23856 <util_lr_gain_process+0x3ca>; movi	a9, 0 }
16f2382e:	31070f070c074d4e                  	{ bltu.w15	a13, a4, 16f2385d <util_lr_gain_process+0x3d1>; ae_movda32	aed7, a15 }
16f23836:	1a83553b34e2b13e                  	{ nop; nop; ae_mul32.ll	aed7, aed7, aed2 }
16f2383e:	0ead257b09240cd0c58081390c01ce7f 	{ ae_sraa64	aed7, aed7, a14; nop; nop; nop }
16f2384e:	080697c0007c1c4e                  	{ j	16f2389e <util_lr_gain_process+0x412>; ae_movad32.l	a9, aed7 }

16f23856 <util_lr_gain_process+0x3ca>:
16f23856:	001106                                    	j	16f2389e <util_lr_gain_process+0x412>

16f23859 <util_lr_gain_process+0x3cd>:
16f23859:	00000000                                ....

16f2385d <util_lr_gain_process+0x3d1>:
16f2385d:	4198f0                                    	srli	a9, a15, 8
16f23860:	230740c200e519ee                  	{ ae_movda32	aed8, a9; nop }
16f23868:	1a8355433502b13e                  	{ nop; nop; ae_mul32.ll	aed8, aed8, aed2 }
16f23870:	0ead257b09440cd0c58081390c010e8f 	{ ae_sraa64	aed8, aed8, a14; nop; nop; nop }
16f23880:	230700c200e5d69e                  	{ ae_movad32.l	a9, aed8; nop }
16f23888:	2906af4600ac379e                  	{ srai	a8, a9, 23; srai	a2, a9, 31 }
16f23890:	0906924014fa623e                  	{ xor	a2, a2, a3; sub	a8, a2, a8 }
16f23898:	939280                                    	movnez	a9, a2, a8
16f2389b:	119980                                    	slli	a9, a9, 8
16f2389e:	0b99                                    	s32i.n	a9, a11, 0
16f238a0:	3c02ecc1047f0bbe                  	{ addi	a11, a11, 4; addi	a12, a12, -1 }

16f238a8 <util_lr_gain_process+0x41c>:
16f238a8:	f01d                                    	retw.n

16f238aa <util_lr_gain_process+0x41e>:
	...

16f238b5 <util_lr_gain_process+0x429>:
16f238b5:	230740c010e514ee                  	{ ae_movda32	aed2, a4; nop }
16f238bd:	31074a4518a0e58e                  	{ loopnez	a5, 16f239b8 <util_lr_gain_process+0x52c>; ae_movda32	aed0, a10 }
16f238c5:	0f032b040400bc0e                  	{ bbci.w15	a12, 0, 16f23940 <util_lr_gain_process+0x4b4>; l16si	a15, a11, 0 }
16f238cd:	080400200400baae                  	{ beqz.w15	a10, 16f23905 <util_lr_gain_process+0x479>; movi	a9, 0 }
16f238d5:	23070f070c017dae                  	{ bltu.w15	a13, a10, 16f23908 <util_lr_gain_process+0x47c>; ae_movda16	aed1, a15 }
16f238dd:	1a834f4b3401b13e                  	{ nop; nop; ae_mul32x16.l0	aed9, aed0, aed1 }
16f238e5:	0ead257b09440cd0c58081390c014e9f 	{ ae_sraa64	aed9, aed9, a14; nop; nop; nop }
16f238f5:	000003ed230000fcb6a3a3002060042f 	{ j	16f2393b <util_lr_gain_process+0x4af>; ae_movad16.0	a9, aed9; nop }

16f23905 <util_lr_gain_process+0x479>:
16f23905:	000c86                                    	j	16f2393b <util_lr_gain_process+0x4af>

16f23908 <util_lr_gain_process+0x47c>:
16f23908:	1a834f533401b13e                  	{ nop; nop; ae_mul32x16.l0	aed10, aed0, aed1 }
16f23910:	0ead257b09440cd0c58081390c018eaf 	{ ae_sraa64	aed10, aed10, a14; nop; nop; nop }
16f23920:	230700c210e5d69e                  	{ ae_movad32.l	a9, aed10; nop }
16f23928:	3906af4200af3f9e                  	{ srai	a8, a9, 15; srai	a15, a9, 31 }
16f23930:	09069f431cfa6f3e                  	{ xor	a15, a15, a3; sub	a8, a15, a8 }
16f23938:	939f80                                    	movnez	a9, a15, a8
16f2393b:	6b9d                                    	ae_s16i.n	a9, a11, 0
16f2393d:	001bc6                                    	j	16f239b0 <util_lr_gain_process+0x524>

16f23940 <util_lr_gain_process+0x4b4>:
16f23940:	22070f20040174ae                  	{ beqz.w15	a4, 16f23970 <util_lr_gain_process+0x4e4>; ae_movda16	aed1, a15 }
16f23948:	1a000f5d3041bd4e                  	{ bltu.w15	a13, a4, 16f23978 <util_lr_gain_process+0x4ec>; nop; ae_mul32x16.l0	aed11, aed2, aed1 }
16f23950:	0ead257b09440cd0c58081390c01cebf 	{ ae_sraa64	aed11, aed11, a14; nop; nop; nop }
16f23960:	000003ed2b0000fcb6a3a300206004af 	{ j	16f239ae <util_lr_gain_process+0x522>; ae_movad16.0	a9, aed11; nop }

16f23970 <util_lr_gain_process+0x4e4>:
16f23970:	0804004000601a3e                  	{ j	16f239ae <util_lr_gain_process+0x522>; movi	a9, 0 }

16f23978 <util_lr_gain_process+0x4ec>:
16f23978:	1a834f633441b13e                  	{ nop; nop; ae_mul32x16.l0	aed12, aed2, aed1 }
16f23980:	0020f0                                    	nop
16f23983:	0ead257b09640cd0c58081390c010ecf 	{ ae_sraa64	aed12, aed12, a14; nop; nop; nop }
16f23993:	230700c300e5d69e                  	{ ae_movad32.l	a9, aed12; nop }
16f2399b:	3906af4200af3f9e                  	{ srai	a8, a9, 15; srai	a15, a9, 31 }
16f239a3:	09069f431cfa6f3e                  	{ xor	a15, a15, a3; sub	a8, a15, a8 }
16f239ab:	939f80                                    	movnez	a9, a15, a8
16f239ae:	6b9d                                    	ae_s16i.n	a9, a11, 0
16f239b0:	3c02ecc0147f0bbe                  	{ addi	a11, a11, 2; addi	a12, a12, -1 }

16f239b8 <util_lr_gain_process+0x52c>:
16f239b8:	f01d                                    	retw.n

16f239ba <util_lr_gain_process+0x52e>:
16f239ba:	00000000 ff2e0000                                ......

16f239c0 <util_lr_gain_process+0x534>:
16f239c0:	290699461c6aff2e                  	{ j	16f234f3 <util_lr_gain_process+0x67>; or	a10, a9, a9 }

16f239c8 <util_lr_gain_process+0x53c>:
16f239c8:	250694461c6ae45e                  	{ j	16f23520 <util_lr_gain_process+0x94>; or	a10, a4, a4 }

16f239d0 <util_lr_gain_process+0x544>:
16f239d0:	802ec2                                    	l32i	a12, a14, 0x200
16f239d3:	c0b9c0                                    	sub	a11, a9, a12
16f239d6:	0020f0                                    	nop
16f239d9:	11e765                                    	call8	16f35850 <__mulsi3>
16f239dc:	8ba0b2                                    	movi	a11, 139

16f239df <util_lr_gain_process+0x553>:
16f239df:	2a0702c0148301ae                  	{ l32i	a10, a1, 8; neg	a14, a10 }
16f239e7:	3c044940088101de                  	{ movi	a13, 17; movi	a12, 121 }
16f239ef:	2e06f3c20417a6fe                  	{ l32r	a15, 16f20c08 (16f363c4 <xtos_interrupt_mask_table+0x4c>); srli	a14, a14, 3 }
16f239f7:	2f069a46147ae8fe                  	{ j	16f234f3 <util_lr_gain_process+0x67>; sub	a10, a10, a14 }

16f239ff <util_lr_gain_process+0x573>:
	...

16f23a00 <util_lr_gain_process+0x574>:
16f23a00:	802bb2                                    	l32i	a11, a11, 0x200
16f23a03:	c0b4b0                                    	sub	a11, a4, a11
16f23a06:	11e4a5                                    	call8	16f35850 <__mulsi3>
16f23a09:	60a0a0                                    	neg	a10, a10
16f23a0c:	41a3a0                                    	srli	a10, a10, 3
16f23a0f:	2b0694461c7aed0e                  	{ j	16f23520 <util_lr_gain_process+0x94>; sub	a10, a4, a10 }

16f23a17 <util_lr_gain_process+0x58b>:
16f23a17:	000000                                        ...

16f23a1a <util_lr_gain_process+0x58e>:
16f23a1a:	00000000 14ae0000                                ......

16f23a20 <util_lr_gain_process+0x594>:
16f23a20:	0a030440108114ae                  	{ l16si	a10, a4, 4; l16si	a11, a4, 8 }
16f23a28:	0203c2021c002bae                  	{ bne.w15	a11, a10, 16f23ad0 <util_lr_gain_process+0x644>; l32i	a2, a2, 0 }
16f23a30:	230760b80b65b5ce                  	{ blti.w15	a5, 1, 16f2360a <util_lr_gain_process+0x17e>; nop }
16f23a38:	114a00                                    	slli	a4, a10, 16
16f23a3b:	24068f441ced252e                  	{ addx2	a3, a5, a2; srai	a6, a4, 31 }
16f23a43:	22ad                                    	ae_l16si.n	a10, a2, 0
16f23a45:	06dd                                    	mov.n	a13, a6
16f23a47:	0506b44618ab2fae                  	{ srai	a11, a10, 31; or	a12, a4, a4 }
16f23a4f:	0020f0                                    	nop
16f23a52:	08a4e5                                    	call8	16f2c4a0 <__muldi3>
16f23a55:	11bbf0                                    	slli	a11, a11, 1

16f23a58 <util_lr_gain_process+0x5cc>:
16f23a58:	2202a240008002be                  	{ s16i	a11, a2, 0; addi	a2, a2, 2 }
16f23a60:	df9237                                    	bne	a2, a3, 16f23a43 <util_lr_gain_process+0x5b7>
16f23a63:	f01d                                    	retw.n

16f23a65 <util_lr_gain_process+0x5d9>:
16f23a65:	000000                                        ...

16f23a68 <util_lr_gain_process+0x5dc>:
16f23a68:	230740b80b65f5ce                  	{ blti.w15	a5, 1, 16f2360a <util_lr_gain_process+0x17e>; nop }
16f23a70:	0304204518a01b0e                  	{ slli	a7, a11, 16; movi	a3, 0 }
16f23a78:	0706af4500af1a0e                  	{ slli	a4, a10, 16; srai	a12, a7, 31 }
16f23a80:	2506af40188d01ce                  	{ s32i	a12, a1, 12; srai	a6, a4, 31 }
16f23a88:	02a8                                    	l32i.n	a10, a2, 0
16f23a8a:	3b068f00000ec30e                  	{ bbci.w15	a3, 0, 16f23aa8 <util_lr_gain_process+0x61c>; srai	a11, a10, 31 }
16f23a92:	3c03a14700e0f77e                  	{ or	a12, a7, a7; l32i	a13, a1, 12 }
16f23a9a:	08a065                                    	call8	16f2c4a0 <__muldi3>
16f23a9d:	2e068b400066151e                  	{ j	16f23ab6 <util_lr_gain_process+0x62a>; slli	a10, a11, 1 }

16f23aa5 <util_lr_gain_process+0x619>:
16f23aa5:	000000                                        ...

16f23aa8 <util_lr_gain_process+0x61c>:
16f23aa8:	0406b44708ebe66e                  	{ or	a13, a6, a6; or	a12, a4, a4 }
16f23ab0:	089ee5                                    	call8	16f2c4a0 <__muldi3>
16f23ab3:	11abf0                                    	slli	a10, a11, 1
16f23ab6:	1302a340008012ae                  	{ s32i	a10, a2, 0; addi	a3, a3, 1 }
16f23abe:	0302e21a1be1235e                  	{ bne.w15	a3, a5, 16f23a88 <util_lr_gain_process+0x5fc>; addi	a2, a2, 4 }
16f23ac6:	f01d                                    	retw.n

16f23ac8 <util_lr_gain_process+0x63c>:
16f23ac8:	000000                                        ...

16f23acb <util_lr_gain_process+0x63f>:
16f23acb:	00000000 65b5ce00                                .....

16f23ad0 <util_lr_gain_process+0x644>:
16f23ad0:	230700b80f65b5ce                  	{ blti.w15	a5, 1, 16f2360a <util_lr_gain_process+0x17e>; nop }
16f23ad8:	0304204518a01b0e                  	{ slli	a7, a11, 16; movi	a3, 0 }
16f23ae0:	1706af4500af1a0e                  	{ slli	a4, a10, 16; srai	a13, a7, 31 }
16f23ae8:	2506af40188d01de                  	{ s32i	a13, a1, 12; srai	a6, a4, 31 }
16f23af0:	22ad                                    	ae_l16si.n	a10, a2, 0
16f23af2:	3a068f00000ee30e                  	{ bbci.w15	a3, 0, 16f23b12 <util_lr_gain_process+0x686>; srai	a11, a10, 31 }
16f23afa:	060697401c8b11de                  	{ l32i	a13, a1, 12; or	a12, a7, a7 }
16f23b02:	0899e5                                    	call8	16f2c4a0 <__muldi3>
16f23b05:	2e068b400066171e                  	{ j	16f23b20 <util_lr_gain_process+0x694>; slli	a10, a11, 1 }

16f23b0d <util_lr_gain_process+0x681>:
16f23b0d:	000000                                        ...

16f23b10 <util_lr_gain_process+0x684>:
	...

16f23b12 <util_lr_gain_process+0x686>:
16f23b12:	1606b64700ebe44e                  	{ or	a12, a4, a4; or	a13, a6, a6 }
16f23b1a:	089865                                    	call8	16f2c4a0 <__muldi3>
16f23b1d:	11abf0                                    	slli	a10, a11, 1
16f23b20:	1202a340008012ae                  	{ s16i	a10, a2, 0; addi	a3, a3, 1 }
16f23b28:	2202e21a1be0235e                  	{ bne.w15	a3, a5, 16f23af0 <util_lr_gain_process+0x664>; addi	a2, a2, 2 }
16f23b30:	f01d                                    	retw.n

16f23b32 <util_lr_gain_process+0x6a6>:
16f23b32:	000000                                        ...

16f23b35 <util_lr_gain_process+0x6a9>:
16f23b35:	000000                                        ...

16f23b38 <util_lr_fade_gain_process>:
16f23b38:	006136                                    	entry	a1, 48
16f23b3b:	3a03c440088001ee                  	{ movi	a14, 17; l32i	a10, a4, 12 }
16f23b43:	0a046b401402bffe                  	{ l32r	a15, 16f20c00 (16f363cc <xtos_interrupt_mask_table+0x54>); movi	a11, 139 }
16f23b4b:	0c03d4411081126e                  	{ movi	a6, 98; l8ui	a13, a4, 4 }
16f23b53:	3c0409400481027e                  	{ l32i	a7, a2, 0; movi	a12, 121 }
16f23b5b:	0f02afc0109e117e                  	{ s32i	a7, a1, 8; addi	a15, a15, -8 }
16f23b63:	38028d850801ccde                  	{ bgeu.w15	a12, a13, 16f23b80 <util_lr_fade_gain_process+0x48>; addi	a8, a13, -121 }
16f23b6b:	11be87                                    	bgeu	a14, a8, 16f23b80 <util_lr_fade_gain_process+0x48>
16f23b6e:	f42441                                    	l32r	a4, 16f20c00 (16f363cc <xtos_interrupt_mask_table+0x54>)
16f23b71:	14038440007f0e1e                  	{ j	16f23b93 <util_lr_fade_gain_process+0x5b>; l32i	a4, a4, 0x1f4 }

16f23b79 <util_lr_fade_gain_process+0x41>:
16f23b79:	00000000 4e000000                                .......

16f23b80 <util_lr_fade_gain_process+0x48>:
16f23b80:	1c06fb40141bb04e                  	{ l32r	a4, 16f20c00 (16f363cc <xtos_interrupt_mask_table+0x54>); sub	a13, a11, a13 }
16f23b88:	230760810c4556de                  	{ bgeu.w15	a6, a13, 16f23e76 <util_lr_fade_gain_process+0x33e>; nop }
16f23b90:	e02442                                    	l32i	a4, a4, 0x380

16f23b93 <util_lr_fade_gain_process+0x5b>:
16f23b93:	0405d2                                    	l8ui	a13, a5, 4
16f23b96:	35a8                                    	l32i.n	a10, a5, 12
16f23b98:	3d069b01081abcde                  	{ bgeu.w15	a12, a13, 16f23bb2 <util_lr_fade_gain_process+0x7a>; sub	a11, a11, a13 }
16f23ba0:	87cd82                                    	addi	a8, a13, -121
16f23ba3:	0bbe87                                    	bgeu	a14, a8, 16f23bb2 <util_lr_fade_gain_process+0x7a>
16f23ba6:	f416a1                                    	l32r	a10, 16f20c00 (16f363cc <xtos_interrupt_mask_table+0x54>)
16f23ba9:	1a038a40007f031e                  	{ j	16f23bc0 <util_lr_fade_gain_process+0x88>; l32i	a10, a10, 0x1f4 }

16f23bb1 <util_lr_fade_gain_process+0x79>:
	...

16f23bb2 <util_lr_fade_gain_process+0x7a>:
16f23bb2:	220760850c45b6be                  	{ bgeu.w15	a6, a11, 16f23eab <util_lr_fade_gain_process+0x373>; nop }
16f23bba:	f411a1                                    	l32r	a10, 16f20c00 (16f363cc <xtos_interrupt_mask_table+0x54>)
16f23bbd:	e02aa2                                    	l32i	a10, a10, 0x380

16f23bc0 <util_lr_fade_gain_process+0x88>:
16f23bc0:	022252                                    	l32i	a5, a2, 8
16f23bc3:	2406ba4618fae55e                  	{ or	a11, a5, a5; sub	a10, a10, a4 }
16f23bcb:	11d265                                    	call8	16f358f0 <__divsi3>
16f23bce:	006142                                    	s32i	a4, a1, 0
16f23bd1:	016142                                    	s32i	a4, a1, 4
16f23bd4:	2b06da240049c5ae                  	{ beqz.w15	a5, 16f23e73 <util_lr_fade_gain_process+0x33b>; or	a6, a10, a10 }
16f23bdc:	040400400060121e                  	{ j	16f23bf2 <util_lr_fade_gain_process+0xba>; movi	a5, 0 }

16f23be4 <util_lr_fade_gain_process+0xac>:
16f23be4:	0149                                    	s32i.n	a4, a1, 0
16f23be6:	1149                                    	s32i.n	a4, a1, 4
16f23be8:	22f8                                    	l32i.n	a15, a2, 8
16f23bea:	22074085084535fe                  	{ bgeu.w15	a5, a15, 16f23e73 <util_lr_fade_gain_process+0x33b>; nop }
16f23bf2:	1149                                    	s32i.n	a4, a1, 4
16f23bf4:	0306b340008b114e                  	{ s32i	a4, a1, 0; or	a12, a3, a3 }
16f23bfc:	2006f141046a11be                  	{ addi	a11, a1, 4; or	a10, a1, a1 }
16f23c04:	ff83e5                                    	call8	16f23444 <utils_gain_balance_coef>
16f23c07:	32a8                                    	l32i.n	a10, a2, 12
16f23c09:	446a                                    	add.n	a4, a4, a6
16f23c0b:	0a03e1400c60155e                  	{ addi	a5, a5, 1; l32i	a11, a1, 0 }
16f23c13:	180428261800ca0e                  	{ beqi.w15	a10, 16, 16f23c70 <util_lr_fade_gain_process+0x138>; movi	a8, 24 }
16f23c1b:	c59a87                                    	bne	a10, a8, 16f23be4 <util_lr_fade_gain_process+0xac>
16f23c1e:	0a038140148011ae                  	{ l32i	a10, a1, 8; l32i	a11, a1, 0 }
16f23c26:	f3f6c1                                    	l32r	a12, 16f20c00 (16f363cc <xtos_interrupt_mask_table+0x54>)
16f23c29:	0904404008e01bee                  	{ ae_movda32	aed1, a11; movi	a9, 0 }
16f23c31:	0b03aa2400204bae                  	{ beqz.w15	a11, 16f23d80 <util_lr_fade_gain_process+0x248>; l32i	a10, a10, 0 }
16f23c39:	8f2cc2                                    	l32i	a12, a12, 0x23c
16f23c3c:	1d04270708201cbe                  	{ bltu.w15	a12, a11, 16f23d83 <util_lr_fade_gain_process+0x24b>; movi	a13, 23 }
16f23c44:	230740c000e51aee                  	{ ae_movda32	aed0, a10; nop }
16f23c4c:	1a8355033401b13e                  	{ nop; nop; ae_mul32.ll	aed0, aed0, aed1 }
16f23c54:	0ead257b09040cd0c58081390c010d0f 	{ ae_sraa64	aed0, aed0, a13; nop; nop; nop }
16f23c64:	080690c0087c116e                  	{ j	16f23dc9 <util_lr_fade_gain_process+0x291>; ae_movad32.l	a9, aed0 }

16f23c6c <util_lr_fade_gain_process+0x134>:
16f23c6c:	00000000                                ....

16f23c70 <util_lr_fade_gain_process+0x138>:
16f23c70:	0a0307200400ebae                  	{ beqz.w15	a11, 16f23cb0 <util_lr_fade_gain_process+0x178>; l16si	a10, a7, 0 }
16f23c78:	f3e2e1                                    	l32r	a14, 16f20c00 (16f363cc <xtos_interrupt_mask_table+0x54>)
16f23c7b:	30074b4000e10aee                  	{ ae_movda16	aed0, a10; ae_movda32	aed1, a11 }
16f23c83:	1a81ef132020feee                  	{ l32i	a14, a14, 0x23c; nop; ae_mul32x16.l0	aed2, aed1, aed0 }
16f23c8b:	7f1c                                    	movi.n	a15, 23
16f23c8d:	0ead257b09040cd0c58081390c018f2f 	{ ae_sraa64	aed2, aed2, a15; nop; nop; nop }
16f23c9d:	0000002d080000fc9315a01f3060aebf 	{ bltu.w15	a14, a11, 16f23cb8 <util_lr_fade_gain_process+0x180>; ae_movad16.0	a9, aed2; ae_mul32x16.l0	aed3, aed1, aed0 }
16f23cad:	000dc6                                    	j	16f23ce8 <util_lr_fade_gain_process+0x1b0>

16f23cb0 <util_lr_fade_gain_process+0x178>:
16f23cb0:	080400400060143e                  	{ j	16f23ce8 <util_lr_fade_gain_process+0x1b0>; movi	a9, 0 }

16f23cb8 <util_lr_fade_gain_process+0x180>:
16f23cb8:	7b1c                                    	movi.n	a11, 23
16f23cba:	0ead257b09040cd0c58081390c01cb3f 	{ ae_sraa64	aed3, aed3, a11; nop; nop; nop }
16f23cca:	230700c018e5d69e                  	{ ae_movad32.l	a9, aed3; nop }
16f23cd2:	f3c4b1                                    	l32r	a11, 16f20be4 (7fff <xthals_release_major+0x494f>)
16f23cd5:	0906af4210ae3f9e                  	{ srai	a10, a9, 15; srai	a8, a9, 31 }

16f23cdd <util_lr_fade_gain_process+0x1a5>:
16f23cdd:	2b06984204fa68be                  	{ xor	a8, a8, a11; sub	a10, a8, a10 }
16f23ce5:	9398a0                                    	movnez	a9, a8, a10

16f23ce8 <util_lr_fade_gain_process+0x1b0>:
16f23ce8:	f3c6c1                                    	l32r	a12, 16f20c00 (16f363cc <xtos_interrupt_mask_table+0x54>)
16f23ceb:	11b8                                    	l32i.n	a11, a1, 4
16f23ced:	37ad                                    	ae_l16si.n	a10, a7, 2
16f23cef:	22072a400080179e                  	{ s16i	a9, a7, 0; ae_movda16	aed0, a10 }
16f23cf7:	30070b240401cbae                  	{ beqz.w15	a11, 16f23d34 <util_lr_fade_gain_process+0x1fc>; ae_movda32	aed1, a11 }
16f23cff:	8f2cc2                                    	l32i	a12, a12, 0x23c
16f23d02:	7d1c                                    	movi.n	a13, 23
16f23d04:	180407030c00ccbe                  	{ bltu.w15	a12, a11, 16f23d40 <util_lr_fade_gain_process+0x208>; movi	a8, 23 }
16f23d0c:	1a834f233420b13e                  	{ nop; nop; ae_mul32x16.l0	aed4, aed1, aed0 }
16f23d14:	0ead257b09240cd0c58081390c010d4f 	{ ae_sraa64	aed4, aed4, a13; nop; nop; nop }
16f23d24:	000003ed130000fc96a3a300206004ef 	{ j	16f23d76 <util_lr_fade_gain_process+0x23e>; ae_movad16.0	a9, aed4; nop }

16f23d34 <util_lr_fade_gain_process+0x1fc>:
16f23d34:	0804004000601e3e                  	{ j	16f23d76 <util_lr_fade_gain_process+0x23e>; movi	a9, 0 }

16f23d3c <util_lr_fade_gain_process+0x204>:
16f23d3c:	00000000                                ....

16f23d40 <util_lr_fade_gain_process+0x208>:
16f23d40:	1a834f2b3420b13e                  	{ nop; nop; ae_mul32x16.l0	aed5, aed1, aed0 }
16f23d48:	0ead257b09240cd0c58081390c01485f 	{ ae_sraa64	aed5, aed5, a8; nop; nop; nop }
16f23d58:	230700c108e5d69e                  	{ ae_movad32.l	a9, aed5; nop }
16f23d60:	f3a181                                    	l32r	a8, 16f20be4 (7fff <xthals_release_major+0x494f>)
16f23d63:	2906af4318af3f9e                  	{ srai	a15, a9, 15; srai	a14, a9, 31 }

16f23d6b <util_lr_fade_gain_process+0x233>:
16f23d6b:	3f069e4314fb7e8e                  	{ xor	a14, a14, a8; sub	a15, a14, a15 }
16f23d73:	939ef0                                    	movnez	a9, a14, a15

16f23d76 <util_lr_fade_gain_process+0x23e>:
16f23d76:	779d                                    	ae_s16i.n	a9, a7, 2
16f23d78:	070287471461f86e                  	{ j	16f23be4 <util_lr_fade_gain_process+0xac>; addi	a7, a7, 4 }

16f23d80 <util_lr_fade_gain_process+0x248>:
16f23d80:	001146                                    	j	16f23dc9 <util_lr_fade_gain_process+0x291>

16f23d83 <util_lr_fade_gain_process+0x24b>:
16f23d83:	41e8a0                                    	srli	a14, a10, 8
16f23d86:	230740c110e51eee                  	{ ae_movda32	aed6, a14; nop }
16f23d8e:	1a83553334c1b13e                  	{ nop; nop; ae_mul32.ll	aed6, aed6, aed1 }
16f23d96:	7d1c                                    	movi.n	a13, 23
16f23d98:	0ead257b09240cd0c58081390c018d6f 	{ ae_sraa64	aed6, aed6, a13; nop; nop; nop }
16f23da8:	230700c110e5d69e                  	{ ae_movad32.l	a9, aed6; nop }
16f23db0:	f395d1                                    	l32r	a13, 16f20c04 (7fffff <xthals_release_major+0x7fc94f>)
16f23db3:	3906af4700ae379e                  	{ srai	a12, a9, 23; srai	a11, a9, 31 }

16f23dbb <util_lr_fade_gain_process+0x283>:
16f23dbb:	0d069b421cfb6bde                  	{ xor	a11, a11, a13; sub	a12, a11, a12 }
16f23dc3:	939bc0                                    	movnez	a9, a11, a12
16f23dc6:	119980                                    	slli	a9, a9, 8

16f23dc9 <util_lr_fade_gain_process+0x291>:
16f23dc9:	21a8                                    	l32i.n	a10, a1, 8
16f23dcb:	2f03a14000801a9e                  	{ s32i	a9, a10, 0; l32i	a15, a1, 8 }
16f23dd3:	11b8                                    	l32i.n	a11, a1, 4
16f23dd5:	f38ac1                                    	l32r	a12, 16f20c00 (16f363cc <xtos_interrupt_mask_table+0x54>)
16f23dd8:	1a03ca400080009e                  	{ movi	a9, 0; l32i	a10, a10, 4 }
16f23de0:	31070b240401abae                  	{ beqz.w15	a11, 16f23e1b <util_lr_fade_gain_process+0x2e3>; ae_movda32	aed1, a11 }
16f23de8:	8f2cc2                                    	l32i	a12, a12, 0x23c
16f23deb:	1c0407070c009cbe                  	{ bltu.w15	a12, a11, 16f23e20 <util_lr_fade_gain_process+0x2e8>; movi	a13, 23 }
16f23df3:	230740c118e51aee                  	{ ae_movda32	aed7, a10; nop }
16f23dfb:	1a83553b34e1b13e                  	{ nop; nop; ae_mul32.ll	aed7, aed7, aed1 }
16f23e03:	0ead257b09240cd0c58081390c01cd7f 	{ ae_sraa64	aed7, aed7, a13; nop; nop; nop }
16f23e13:	080697c0007c1f4e                  	{ j	16f23e66 <util_lr_fade_gain_process+0x32e>; ae_movad32.l	a9, aed7 }

16f23e1b <util_lr_fade_gain_process+0x2e3>:
16f23e1b:	0011c6                                    	j	16f23e66 <util_lr_fade_gain_process+0x32e>

16f23e1e <util_lr_fade_gain_process+0x2e6>:
	...

16f23e20 <util_lr_fade_gain_process+0x2e8>:
16f23e20:	41e8a0                                    	srli	a14, a10, 8
16f23e23:	230740c200e51eee                  	{ ae_movda32	aed8, a14; nop }
16f23e2b:	1a8355433501b13e                  	{ nop; nop; ae_mul32.ll	aed8, aed8, aed1 }
16f23e33:	7d1c                                    	movi.n	a13, 23
16f23e35:	0ead257b09440cd0c58081390c010d8f 	{ ae_sraa64	aed8, aed8, a13; nop; nop; nop }
16f23e45:	230700c200e5d69e                  	{ ae_movad32.l	a9, aed8; nop }
16f23e4d:	f36dd1                                    	l32r	a13, 16f20c04 (7fffff <xthals_release_major+0x7fc94f>)
16f23e50:	3906af4700ae379e                  	{ srai	a12, a9, 23; srai	a11, a9, 31 }

16f23e58 <util_lr_fade_gain_process+0x320>:
16f23e58:	0d069b421cfb6bde                  	{ xor	a11, a11, a13; sub	a12, a11, a12 }
16f23e60:	939bc0                                    	movnez	a9, a11, a12
16f23e63:	119980                                    	slli	a9, a9, 8

16f23e66 <util_lr_fade_gain_process+0x32e>:
16f23e66:	0f02af4008821f9e                  	{ s32i	a9, a15, 4; addi	a15, a15, 8 }

16f23e6e <util_lr_fade_gain_process+0x336>:
16f23e6e:	21f9                                    	s32i.n	a15, a1, 8
16f23e70:	ff5c06                                    	j	16f23be4 <util_lr_fade_gain_process+0xac>

16f23e73 <util_lr_fade_gain_process+0x33b>:
16f23e73:	f01d                                    	retw.n

16f23e75 <util_lr_fade_gain_process+0x33d>:
	...

16f23e76 <util_lr_fade_gain_process+0x33e>:
16f23e76:	a0ddf0                                    	addx4	a13, a13, a15
16f23e79:	35038d3803bfaaae                  	{ beqz.w15	a10, 16f23b93 <util_lr_fade_gain_process+0x5b>; l32i	a4, a13, 0x1fc }
16f23e81:	531aa6                                    	blti	a10, 1, 16f23ed8 <util_lr_fade_gain_process+0x3a0>
16f23e84:	7e2db2                                    	l32i	a11, a13, 0x1f8
16f23e87:	c0bb40                                    	sub	a11, a11, a4
16f23e8a:	119c65                                    	call8	16f35850 <__mulsi3>
16f23e8d:	8ba0b2                                    	movi	a11, 139
16f23e90:	3c044940088101ee                  	{ movi	a14, 17; movi	a12, 121 }
16f23e98:	1b06f3c50c178cfe                  	{ l32r	a15, 16f20c08 (16f363c4 <xtos_interrupt_mask_table+0x4c>); srli	a13, a10, 3 }
16f23ea0:	0d0684470471ffee                  	{ j	16f23b93 <util_lr_fade_gain_process+0x5b>; add	a4, a4, a13 }

16f23ea8 <util_lr_fade_gain_process+0x370>:
16f23ea8:	000000                                        ...

16f23eab <util_lr_fade_gain_process+0x373>:
16f23eab:	a0bbf0                                    	addx4	a11, a11, a15
16f23eae:	7f2b52                                    	l32i	a5, a11, 0x1fc
16f23eb1:	ba9c                                    	beqz.n	a10, 16f23ed0 <util_lr_fade_gain_process+0x398>
16f23eb3:	4d1aa6                                    	blti	a10, 1, 16f23f04 <util_lr_fade_gain_process+0x3cc>
16f23eb6:	7e2bb2                                    	l32i	a11, a11, 0x1f8
16f23eb9:	c0bb50                                    	sub	a11, a11, a5
16f23ebc:	119925                                    	call8	16f35850 <__mulsi3>
16f23ebf:	41a3a0                                    	srli	a10, a10, 3
16f23ec2:	2b0685470472eafe                  	{ j	16f23bc0 <util_lr_fade_gain_process+0x88>; add	a10, a5, a10 }

16f23eca <util_lr_fade_gain_process+0x392>:
16f23eca:	000000                                        ...

16f23ecd <util_lr_fade_gain_process+0x395>:
16f23ecd:	000000                                        ...

16f23ed0 <util_lr_fade_gain_process+0x398>:
16f23ed0:	25069547046afcee                  	{ j	16f23bc0 <util_lr_fade_gain_process+0x88>; or	a10, a5, a5 }

16f23ed8 <util_lr_fade_gain_process+0x3a0>:
16f23ed8:	802db2                                    	l32i	a11, a13, 0x200
16f23edb:	c0b4b0                                    	sub	a11, a4, a11
16f23ede:	119725                                    	call8	16f35850 <__mulsi3>
16f23ee1:	3c04494200810bbe                  	{ movi	a11, 139; movi	a12, 121 }
16f23ee9:	1f04014708e0cfae                  	{ neg	a13, a10; movi	a14, 17 }
16f23ef1:	1d06f3c5041795fe                  	{ l32r	a15, 16f20c08 (16f363c4 <xtos_interrupt_mask_table+0x4c>); srli	a13, a13, 3 }
16f23ef9:	0d0694470479f69e                  	{ j	16f23b93 <util_lr_fade_gain_process+0x5b>; sub	a4, a4, a13 }

16f23f01 <util_lr_fade_gain_process+0x3c9>:
16f23f01:	000000                                        ...

16f23f04 <util_lr_fade_gain_process+0x3cc>:
16f23f04:	802bb2                                    	l32i	a11, a11, 0x200
16f23f07:	c0b5b0                                    	sub	a11, a5, a11
16f23f0a:	119465                                    	call8	16f35850 <__mulsi3>
16f23f0d:	60a0a0                                    	neg	a10, a10
16f23f10:	41a3a0                                    	srli	a10, a10, 3
